ARM GAS  C:\Users\dshen\AppData\Local\Temp\ccma8VAB.s 			page 1


   1              		.syntax unified
   2              		.cpu cortex-m3
   3              		.fpu softvfp
   4              		.eabi_attribute 20, 1
   5              		.eabi_attribute 21, 1
   6              		.eabi_attribute 23, 3
   7              		.eabi_attribute 24, 1
   8              		.eabi_attribute 25, 1
   9              		.eabi_attribute 26, 1
  10              		.eabi_attribute 30, 1
  11              		.eabi_attribute 34, 1
  12              		.eabi_attribute 18, 4
  13              		.thumb
  14              		.syntax unified
  15              		.file	"main.c"
  16              		.text
  17              	.Ltext0:
  18              		.cfi_sections	.debug_frame
  19              		.section	.text.LEDOffInterrupt,"ax",%progbits
  20              		.align	2
  21              		.global	LEDOffInterrupt
  22              		.thumb
  23              		.thumb_func
  24              		.type	LEDOffInterrupt, %function
  25              	LEDOffInterrupt:
  26              	.LFB65:
  27              		.file 1 "main.c"
   1:main.c        **** /* ========================================
   2:main.c        ****  *
   3:main.c        ****  * Copyright YOUR COMPANY, THE YEAR
   4:main.c        ****  * All Rights Reserved
   5:main.c        ****  * UNPUBLISHED, LICENSED SOFTWARE.
   6:main.c        ****  *
   7:main.c        ****  * CONFIDENTIAL AND PROPRIETARY INFORMATION
   8:main.c        ****  * WHICH IS THE PROPERTY OF your company.
   9:main.c        ****  *
  10:main.c        ****  * ========================================
  11:main.c        **** */
  12:main.c        **** #include "project.h"
  13:main.c        **** 
  14:main.c        **** uint8 switchPeriod = 0;
  15:main.c        **** 
  16:main.c        **** /** Set the LED to turn on for *time* seconds at *pwmMag*. */ 
  17:main.c        **** void setLED(int pwmMag, int time) {
  18:main.c        ****     LEDDuration_WritePeriod(time * 100);
  19:main.c        ****     LEDPWM_WriteCompare1(pwmMag);
  20:main.c        ****     LEDDuration_WriteCounter(0);
  21:main.c        **** }
  22:main.c        **** 
  23:main.c        **** CY_ISR(TimerInterrupt)
  24:main.c        **** {
  25:main.c        ****     if (switchPeriod) {
  26:main.c        ****         // Set LED to be on for 1 second and PWM to be half.
  27:main.c        ****         switchPeriod = 0;
  28:main.c        ****         setLED(130, 1);
  29:main.c        ****     } else {
  30:main.c        ****         // Set LED to be on for 2 seconds and PWM to be full
ARM GAS  C:\Users\dshen\AppData\Local\Temp\ccma8VAB.s 			page 2


  31:main.c        ****         switchPeriod = 1;
  32:main.c        ****         setLED(255, 2);
  33:main.c        ****     }
  34:main.c        ****     Timer_1_ReadStatusRegister();
  35:main.c        **** }
  36:main.c        **** 
  37:main.c        **** CY_ISR(LEDOffInterrupt) {
  28              		.loc 1 37 0
  29              		.cfi_startproc
  30              		@ args = 0, pretend = 0, frame = 0
  31              		@ frame_needed = 0, uses_anonymous_args = 0
  32 0000 08B5     		push	{r3, lr}
  33              		.cfi_def_cfa_offset 8
  34              		.cfi_offset 3, -8
  35              		.cfi_offset 14, -4
  38:main.c        ****     LEDPWM_WriteCompare1(0);
  36              		.loc 1 38 0
  37 0002 0020     		movs	r0, #0
  38 0004 FFF7FEFF 		bl	LEDPWM_WriteCompare1
  39              	.LVL0:
  39:main.c        ****     LEDDuration_ReadStatusRegister();
  40              		.loc 1 39 0
  41 0008 FFF7FEFF 		bl	LEDDuration_ReadStatusRegister
  42              	.LVL1:
  43 000c 08BD     		pop	{r3, pc}
  44              		.cfi_endproc
  45              	.LFE65:
  46              		.size	LEDOffInterrupt, .-LEDOffInterrupt
  47 000e 00BF     		.section	.text.setLED,"ax",%progbits
  48              		.align	2
  49              		.global	setLED
  50              		.thumb
  51              		.thumb_func
  52              		.type	setLED, %function
  53              	setLED:
  54              	.LFB63:
  17:main.c        ****     LEDDuration_WritePeriod(time * 100);
  55              		.loc 1 17 0
  56              		.cfi_startproc
  57              		@ args = 0, pretend = 0, frame = 0
  58              		@ frame_needed = 0, uses_anonymous_args = 0
  59              	.LVL2:
  60 0000 10B5     		push	{r4, lr}
  61              		.cfi_def_cfa_offset 8
  62              		.cfi_offset 4, -8
  63              		.cfi_offset 14, -4
  64 0002 0446     		mov	r4, r0
  18:main.c        ****     LEDPWM_WriteCompare1(pwmMag);
  65              		.loc 1 18 0
  66 0004 01EB8101 		add	r1, r1, r1, lsl #2
  67              	.LVL3:
  68 0008 01EB8101 		add	r1, r1, r1, lsl #2
  69 000c 8800     		lsls	r0, r1, #2
  70              	.LVL4:
  71 000e 80B2     		uxth	r0, r0
  72 0010 FFF7FEFF 		bl	LEDDuration_WritePeriod
  73              	.LVL5:
ARM GAS  C:\Users\dshen\AppData\Local\Temp\ccma8VAB.s 			page 3


  19:main.c        ****     LEDDuration_WriteCounter(0);
  74              		.loc 1 19 0
  75 0014 E0B2     		uxtb	r0, r4
  76 0016 FFF7FEFF 		bl	LEDPWM_WriteCompare1
  77              	.LVL6:
  20:main.c        **** }
  78              		.loc 1 20 0
  79 001a 0020     		movs	r0, #0
  80 001c FFF7FEFF 		bl	LEDDuration_WriteCounter
  81              	.LVL7:
  82 0020 10BD     		pop	{r4, pc}
  83              		.cfi_endproc
  84              	.LFE63:
  85              		.size	setLED, .-setLED
  86 0022 00BF     		.section	.text.TimerInterrupt,"ax",%progbits
  87              		.align	2
  88              		.global	TimerInterrupt
  89              		.thumb
  90              		.thumb_func
  91              		.type	TimerInterrupt, %function
  92              	TimerInterrupt:
  93              	.LFB64:
  24:main.c        ****     if (switchPeriod) {
  94              		.loc 1 24 0
  95              		.cfi_startproc
  96              		@ args = 0, pretend = 0, frame = 0
  97              		@ frame_needed = 0, uses_anonymous_args = 0
  98 0000 08B5     		push	{r3, lr}
  99              		.cfi_def_cfa_offset 8
 100              		.cfi_offset 3, -8
 101              		.cfi_offset 14, -4
  25:main.c        ****         // Set LED to be on for 1 second and PWM to be half.
 102              		.loc 1 25 0
 103 0002 0A4B     		ldr	r3, .L9
 104 0004 1B78     		ldrb	r3, [r3]	@ zero_extendqisi2
 105 0006 3BB1     		cbz	r3, .L6
  27:main.c        ****         setLED(130, 1);
 106              		.loc 1 27 0
 107 0008 0022     		movs	r2, #0
 108 000a 084B     		ldr	r3, .L9
 109 000c 1A70     		strb	r2, [r3]
  28:main.c        ****     } else {
 110              		.loc 1 28 0
 111 000e 0121     		movs	r1, #1
 112 0010 8220     		movs	r0, #130
 113 0012 FFF7FEFF 		bl	setLED
 114              	.LVL8:
 115 0016 06E0     		b	.L7
 116              	.L6:
  31:main.c        ****         setLED(255, 2);
 117              		.loc 1 31 0
 118 0018 0122     		movs	r2, #1
 119 001a 044B     		ldr	r3, .L9
 120 001c 1A70     		strb	r2, [r3]
  32:main.c        ****     }
 121              		.loc 1 32 0
 122 001e 0221     		movs	r1, #2
ARM GAS  C:\Users\dshen\AppData\Local\Temp\ccma8VAB.s 			page 4


 123 0020 FF20     		movs	r0, #255
 124 0022 FFF7FEFF 		bl	setLED
 125              	.LVL9:
 126              	.L7:
  34:main.c        **** }
 127              		.loc 1 34 0
 128 0026 FFF7FEFF 		bl	Timer_1_ReadStatusRegister
 129              	.LVL10:
 130 002a 08BD     		pop	{r3, pc}
 131              	.L10:
 132              		.align	2
 133              	.L9:
 134 002c 00000000 		.word	.LANCHOR0
 135              		.cfi_endproc
 136              	.LFE64:
 137              		.size	TimerInterrupt, .-TimerInterrupt
 138              		.section	.text.main,"ax",%progbits
 139              		.align	2
 140              		.global	main
 141              		.thumb
 142              		.thumb_func
 143              		.type	main, %function
 144              	main:
 145              	.LFB66:
  40:main.c        **** }
  41:main.c        **** 
  42:main.c        **** int main(void)
  43:main.c        **** {
 146              		.loc 1 43 0
 147              		.cfi_startproc
 148              		@ Volatile: function does not return.
 149              		@ args = 0, pretend = 0, frame = 0
 150              		@ frame_needed = 0, uses_anonymous_args = 0
 151 0000 08B5     		push	{r3, lr}
 152              		.cfi_def_cfa_offset 8
 153              		.cfi_offset 3, -8
 154              		.cfi_offset 14, -4
  44:main.c        ****     Timer_1_Start();
 155              		.loc 1 44 0
 156 0002 FFF7FEFF 		bl	Timer_1_Start
 157              	.LVL11:
  45:main.c        ****     LEDDuration_Start();
 158              		.loc 1 45 0
 159 0006 FFF7FEFF 		bl	LEDDuration_Start
 160              	.LVL12:
  46:main.c        ****     
  47:main.c        ****     TimerInterrupt_Start();
 161              		.loc 1 47 0
 162 000a FFF7FEFF 		bl	TimerInterrupt_Start
 163              	.LVL13:
  48:main.c        ****     TimerInterrupt_StartEx(TimerInterrupt);
 164              		.loc 1 48 0
 165 000e 0848     		ldr	r0, .L14
 166 0010 FFF7FEFF 		bl	TimerInterrupt_StartEx
 167              	.LVL14:
  49:main.c        ****     
  50:main.c        ****     LEDOffInterrupt_Start();
ARM GAS  C:\Users\dshen\AppData\Local\Temp\ccma8VAB.s 			page 5


 168              		.loc 1 50 0
 169 0014 FFF7FEFF 		bl	LEDOffInterrupt_Start
 170              	.LVL15:
  51:main.c        ****     LEDOffInterrupt_StartEx(LEDOffInterrupt);
 171              		.loc 1 51 0
 172 0018 0648     		ldr	r0, .L14+4
 173 001a FFF7FEFF 		bl	LEDOffInterrupt_StartEx
 174              	.LVL16:
  52:main.c        ****     
  53:main.c        ****     LEDPWM_Start();
 175              		.loc 1 53 0
 176 001e FFF7FEFF 		bl	LEDPWM_Start
 177              	.LVL17:
  54:main.c        **** 
  55:main.c        ****     // 5 second cycle.
  56:main.c        ****     Timer_1_WritePeriod(500);
 178              		.loc 1 56 0
 179 0022 4FF4FA70 		mov	r0, #500
 180 0026 FFF7FEFF 		bl	Timer_1_WritePeriod
 181              	.LVL18:
  57:main.c        ****     
  58:main.c        ****     CyGlobalIntEnable; /* Enable global interrupts. */
 182              		.loc 1 58 0
 183              		.syntax unified
 184              	@ 58 "main.c" 1
 185 002a 62B6     		CPSIE   i
 186              	@ 0 "" 2
 187              		.thumb
 188              		.syntax unified
 189              	.L12:
 190 002c FEE7     		b	.L12
 191              	.L15:
 192 002e 00BF     		.align	2
 193              	.L14:
 194 0030 00000000 		.word	TimerInterrupt
 195 0034 00000000 		.word	LEDOffInterrupt
 196              		.cfi_endproc
 197              	.LFE66:
 198              		.size	main, .-main
 199              		.global	switchPeriod
 200              		.bss
 201              		.set	.LANCHOR0,. + 0
 202              		.type	switchPeriod, %object
 203              		.size	switchPeriod, 1
 204              	switchPeriod:
 205 0000 00       		.space	1
 206              		.text
 207              	.Letext0:
 208              		.file 2 "c:\\program files (x86)\\cypress\\psoc creator\\4.3\\psoc creator\\import\\gnu\\arm\\5.4.
 209              		.file 3 "c:\\program files (x86)\\cypress\\psoc creator\\4.3\\psoc creator\\import\\gnu\\arm\\5.4.
 210              		.file 4 "Generated_Source\\PSoC5/cytypes.h"
 211              		.file 5 "Generated_Source\\PSoC5/core_cm3.h"
 212              		.file 6 "Generated_Source\\PSoC5/LEDPWM.h"
 213              		.file 7 "Generated_Source\\PSoC5/LEDDuration.h"
 214              		.file 8 "Generated_Source\\PSoC5/Timer_1.h"
 215              		.file 9 "Generated_Source\\PSoC5/TimerInterrupt.h"
 216              		.file 10 "Generated_Source\\PSoC5/LEDOffInterrupt.h"
ARM GAS  C:\Users\dshen\AppData\Local\Temp\ccma8VAB.s 			page 6

