ARM GAS  C:\Users\dshen\AppData\Local\Temp\ccGr5xLg.s 			page 1


   1              		.syntax unified
   2              		.cpu cortex-m3
   3              		.fpu softvfp
   4              		.eabi_attribute 20, 1
   5              		.eabi_attribute 21, 1
   6              		.eabi_attribute 23, 3
   7              		.eabi_attribute 24, 1
   8              		.eabi_attribute 25, 1
   9              		.eabi_attribute 26, 1
  10              		.eabi_attribute 30, 1
  11              		.eabi_attribute 34, 1
  12              		.eabi_attribute 18, 4
  13              		.thumb
  14              		.syntax unified
  15              		.file	"cQueue.c"
  16              		.text
  17              	.Ltext0:
  18              		.cfi_sections	.debug_frame
  19              		.section	.text.q_kill,"ax",%progbits
  20              		.align	2
  21              		.global	q_kill
  22              		.thumb
  23              		.thumb_func
  24              		.type	q_kill, %function
  25              	q_kill:
  26              	.LFB10:
  27              		.file 1 "cQueue.c"
   1:cQueue.c      **** /*!\file cQueue.c
   2:cQueue.c      **** ** \author SMFSW
   3:cQueue.c      **** ** \copyright BSD 3-Clause License (c) 2017-2019, SMFSW
   4:cQueue.c      **** ** \brief Queue handling library (designed in c on STM32)
   5:cQueue.c      **** ** \details Queue handling library (designed in c on STM32)
   6:cQueue.c      **** **/
   7:cQueue.c      **** /****************************************************************/
   8:cQueue.c      **** #include <string.h>
   9:cQueue.c      **** #include <stdlib.h>
  10:cQueue.c      **** 
  11:cQueue.c      **** #include "cQueue.h"
  12:cQueue.c      **** /****************************************************************/
  13:cQueue.c      **** 
  14:cQueue.c      **** 
  15:cQueue.c      **** /*!	\brief Increment index
  16:cQueue.c      **** **	\details Increment buffer index \b pIdx rolling back to \b start when limit \b end is reached
  17:cQueue.c      **** **	\param [in,out] pIdx - pointer to index value
  18:cQueue.c      **** **	\param [in] end - counter upper limit value
  19:cQueue.c      **** **	\param [in] start - counter lower limit value
  20:cQueue.c      **** **/
  21:cQueue.c      **** static inline void __attribute__((nonnull, always_inline)) inc_idx(uint16_t * const pIdx, const uin
  22:cQueue.c      **** {
  23:cQueue.c      **** //	(*pIdx)++;
  24:cQueue.c      **** //	*pIdx %= end;
  25:cQueue.c      **** 	if (*pIdx < end - 1)	{ (*pIdx)++; }
  26:cQueue.c      **** 	else					{ *pIdx = start; }
  27:cQueue.c      **** }
  28:cQueue.c      **** 
  29:cQueue.c      **** /*!	\brief Decrement index
  30:cQueue.c      **** **	\details Decrement buffer index \b pIdx rolling back to \b end when limit \b start is reached
ARM GAS  C:\Users\dshen\AppData\Local\Temp\ccGr5xLg.s 			page 2


  31:cQueue.c      **** **	\param [in,out] pIdx - pointer to index value
  32:cQueue.c      **** **	\param [in] end - counter upper limit value
  33:cQueue.c      **** **	\param [in] start - counter lower limit value
  34:cQueue.c      **** **/
  35:cQueue.c      **** static inline void __attribute__((nonnull, always_inline)) dec_idx(uint16_t * const pIdx, const uin
  36:cQueue.c      **** {
  37:cQueue.c      **** 	if (*pIdx > start)		{ (*pIdx)--; }
  38:cQueue.c      **** 	else					{ *pIdx = end - 1; }
  39:cQueue.c      **** }
  40:cQueue.c      **** 
  41:cQueue.c      **** 
  42:cQueue.c      **** void * __attribute__((nonnull)) q_init(Queue_t * const q, const uint16_t size_rec, const uint16_t n
  43:cQueue.c      **** {
  44:cQueue.c      **** 	const uint32_t size = nb_recs * size_rec;
  45:cQueue.c      **** 
  46:cQueue.c      **** 	q->rec_nb = nb_recs;
  47:cQueue.c      **** 	q->rec_sz = size_rec;
  48:cQueue.c      **** 	q->impl = type;
  49:cQueue.c      **** 	q->ovw = overwrite;
  50:cQueue.c      **** 
  51:cQueue.c      **** 	q_kill(q);	// Free existing data (if any)
  52:cQueue.c      **** 	q->queue = (uint8_t *) malloc(size);
  53:cQueue.c      **** 
  54:cQueue.c      **** 	if (q->queue == NULL)	{ q->queue_sz = 0; return 0; }	// Return here if Queue not allocated
  55:cQueue.c      **** 	else					{ q->queue_sz = size; }
  56:cQueue.c      **** 
  57:cQueue.c      **** 	q->init = QUEUE_INITIALIZED;
  58:cQueue.c      **** 	q_flush(q);
  59:cQueue.c      **** 
  60:cQueue.c      **** 	return q->queue;	// return NULL when queue not allocated (beside), Queue address otherwise
  61:cQueue.c      **** }
  62:cQueue.c      **** 
  63:cQueue.c      **** void __attribute__((nonnull)) q_kill(Queue_t * const q)
  64:cQueue.c      **** {
  28              		.loc 1 64 0
  29              		.cfi_startproc
  30              		@ args = 0, pretend = 0, frame = 0
  31              		@ frame_needed = 0, uses_anonymous_args = 0
  32              	.LVL0:
  33 0000 10B5     		push	{r4, lr}
  34              		.cfi_def_cfa_offset 8
  35              		.cfi_offset 4, -8
  36              		.cfi_offset 14, -4
  37 0002 0446     		mov	r4, r0
  65:cQueue.c      **** 	if (q->init == QUEUE_INITIALIZED)	{ free(q->queue); }	// Free existing data (if already initialize
  38              		.loc 1 65 0
  39 0004 C28A     		ldrh	r2, [r0, #22]
  40 0006 45F6A523 		movw	r3, #23205
  41 000a 9A42     		cmp	r2, r3
  42 000c 02D1     		bne	.L2
  43              		.loc 1 65 0 is_stmt 0 discriminator 1
  44 000e C068     		ldr	r0, [r0, #12]
  45              	.LVL1:
  46 0010 FFF7FEFF 		bl	free
  47              	.LVL2:
  48              	.L2:
  66:cQueue.c      **** 	q->init = 0;
ARM GAS  C:\Users\dshen\AppData\Local\Temp\ccGr5xLg.s 			page 3


  49              		.loc 1 66 0 is_stmt 1
  50 0014 0023     		movs	r3, #0
  51 0016 E382     		strh	r3, [r4, #22]	@ movhi
  52 0018 10BD     		pop	{r4, pc}
  53              		.cfi_endproc
  54              	.LFE10:
  55              		.size	q_kill, .-q_kill
  56 001a 00BF     		.section	.text.q_flush,"ax",%progbits
  57              		.align	2
  58              		.global	q_flush
  59              		.thumb
  60              		.thumb_func
  61              		.type	q_flush, %function
  62              	q_flush:
  63              	.LFB11:
  67:cQueue.c      **** }
  68:cQueue.c      **** 
  69:cQueue.c      **** 
  70:cQueue.c      **** void __attribute__((nonnull)) q_flush(Queue_t * const q)
  71:cQueue.c      **** {
  64              		.loc 1 71 0
  65              		.cfi_startproc
  66              		@ args = 0, pretend = 0, frame = 0
  67              		@ frame_needed = 0, uses_anonymous_args = 0
  68              		@ link register save eliminated.
  69              	.LVL3:
  72:cQueue.c      **** 	q->in = 0;
  70              		.loc 1 72 0
  71 0000 0023     		movs	r3, #0
  72 0002 0382     		strh	r3, [r0, #16]	@ movhi
  73:cQueue.c      **** 	q->out = 0;
  73              		.loc 1 73 0
  74 0004 4382     		strh	r3, [r0, #18]	@ movhi
  74:cQueue.c      **** 	q->cnt = 0;
  75              		.loc 1 74 0
  76 0006 8382     		strh	r3, [r0, #20]	@ movhi
  77 0008 7047     		bx	lr
  78              		.cfi_endproc
  79              	.LFE11:
  80              		.size	q_flush, .-q_flush
  81 000a 00BF     		.section	.text.q_init,"ax",%progbits
  82              		.align	2
  83              		.global	q_init
  84              		.thumb
  85              		.thumb_func
  86              		.type	q_init, %function
  87              	q_init:
  88              	.LFB9:
  43:cQueue.c      **** 	const uint32_t size = nb_recs * size_rec;
  89              		.loc 1 43 0
  90              		.cfi_startproc
  91              		@ args = 4, pretend = 0, frame = 0
  92              		@ frame_needed = 0, uses_anonymous_args = 0
  93              	.LVL4:
  94 0000 38B5     		push	{r3, r4, r5, lr}
  95              		.cfi_def_cfa_offset 16
  96              		.cfi_offset 3, -16
ARM GAS  C:\Users\dshen\AppData\Local\Temp\ccGr5xLg.s 			page 4


  97              		.cfi_offset 4, -12
  98              		.cfi_offset 5, -8
  99              		.cfi_offset 14, -4
 100 0002 0446     		mov	r4, r0
  44:cQueue.c      **** 
 101              		.loc 1 44 0
 102 0004 01FB02F5 		mul	r5, r1, r2
 103              	.LVL5:
  46:cQueue.c      **** 	q->rec_sz = size_rec;
 104              		.loc 1 46 0
 105 0008 4280     		strh	r2, [r0, #2]	@ movhi
  47:cQueue.c      **** 	q->impl = type;
 106              		.loc 1 47 0
 107 000a 8180     		strh	r1, [r0, #4]	@ movhi
  48:cQueue.c      **** 	q->ovw = overwrite;
 108              		.loc 1 48 0
 109 000c 0370     		strb	r3, [r0]
  49:cQueue.c      **** 
 110              		.loc 1 49 0
 111 000e 9DF81030 		ldrb	r3, [sp, #16]	@ zero_extendqisi2
 112              	.LVL6:
 113 0012 4370     		strb	r3, [r0, #1]
  51:cQueue.c      **** 	q->queue = (uint8_t *) malloc(size);
 114              		.loc 1 51 0
 115 0014 FFF7FEFF 		bl	q_kill
 116              	.LVL7:
  52:cQueue.c      **** 
 117              		.loc 1 52 0
 118 0018 2846     		mov	r0, r5
 119 001a FFF7FEFF 		bl	malloc
 120              	.LVL8:
 121 001e E060     		str	r0, [r4, #12]
  54:cQueue.c      **** 	else					{ q->queue_sz = size; }
 122              		.loc 1 54 0
 123 0020 10B9     		cbnz	r0, .L6
  54:cQueue.c      **** 	else					{ q->queue_sz = size; }
 124              		.loc 1 54 0 is_stmt 0 discriminator 1
 125 0022 0023     		movs	r3, #0
 126 0024 A360     		str	r3, [r4, #8]
 127 0026 38BD     		pop	{r3, r4, r5, pc}
 128              	.LVL9:
 129              	.L6:
  55:cQueue.c      **** 
 130              		.loc 1 55 0 is_stmt 1
 131 0028 A560     		str	r5, [r4, #8]
  57:cQueue.c      **** 	q_flush(q);
 132              		.loc 1 57 0
 133 002a 45F6A523 		movw	r3, #23205
 134 002e E382     		strh	r3, [r4, #22]	@ movhi
  58:cQueue.c      **** 
 135              		.loc 1 58 0
 136 0030 2046     		mov	r0, r4
 137 0032 FFF7FEFF 		bl	q_flush
 138              	.LVL10:
  60:cQueue.c      **** }
 139              		.loc 1 60 0
 140 0036 E068     		ldr	r0, [r4, #12]
ARM GAS  C:\Users\dshen\AppData\Local\Temp\ccGr5xLg.s 			page 5


  61:cQueue.c      **** 
 141              		.loc 1 61 0
 142 0038 38BD     		pop	{r3, r4, r5, pc}
 143              		.cfi_endproc
 144              	.LFE9:
 145              		.size	q_init, .-q_init
 146 003a 00BF     		.section	.text.q_push,"ax",%progbits
 147              		.align	2
 148              		.global	q_push
 149              		.thumb
 150              		.thumb_func
 151              		.type	q_push, %function
 152              	q_push:
 153              	.LFB12:
  75:cQueue.c      **** }
  76:cQueue.c      **** 
  77:cQueue.c      **** 
  78:cQueue.c      **** bool __attribute__((nonnull)) q_push(Queue_t * const q, const void * const record)
  79:cQueue.c      **** {
 154              		.loc 1 79 0
 155              		.cfi_startproc
 156              		@ args = 0, pretend = 0, frame = 0
 157              		@ frame_needed = 0, uses_anonymous_args = 0
 158              	.LVL11:
 159 0000 38B5     		push	{r3, r4, r5, lr}
 160              		.cfi_def_cfa_offset 16
 161              		.cfi_offset 3, -16
 162              		.cfi_offset 4, -12
 163              		.cfi_offset 5, -8
 164              		.cfi_offset 14, -4
  80:cQueue.c      **** 	if ((!q->ovw) && q_isFull(q))	{ return false; }
 165              		.loc 1 80 0
 166 0002 4378     		ldrb	r3, [r0, #1]	@ zero_extendqisi2
 167 0004 1BB9     		cbnz	r3, .L10
 168              	.LVL12:
 169              	.LBB29:
 170              	.LBB30:
 171              		.file 2 "cQueue.h"
   1:cQueue.h      **** /*!\file cQueue.h
   2:cQueue.h      **** ** \author SMFSW
   3:cQueue.h      **** ** \copyright BSD 3-Clause License (c) 2017-2019, SMFSW
   4:cQueue.h      **** ** \brief Queue handling library (designed in c on STM32)
   5:cQueue.h      **** ** \details Queue handling library (designed in c on STM32)
   6:cQueue.h      **** **/
   7:cQueue.h      **** /****************************************************************/
   8:cQueue.h      **** #ifndef __CQUEUE_H
   9:cQueue.h      **** 	#define __CQUEUE_H
  10:cQueue.h      **** 
  11:cQueue.h      **** #ifdef __cplusplus
  12:cQueue.h      **** extern "C" {
  13:cQueue.h      **** #endif
  14:cQueue.h      **** 
  15:cQueue.h      **** #include <inttypes.h>
  16:cQueue.h      **** #include <stdbool.h>
  17:cQueue.h      **** /****************************************************************/
  18:cQueue.h      **** 
  19:cQueue.h      **** 
ARM GAS  C:\Users\dshen\AppData\Local\Temp\ccGr5xLg.s 			page 6


  20:cQueue.h      **** #define QUEUE_INITIALIZED	0x5AA5							//!< Queue initialized control value
  21:cQueue.h      **** 
  22:cQueue.h      **** #define q_init_def(q, sz)	q_init(q, sz, 20, FIFO, false)	//!< Some kind of average default for queu
  23:cQueue.h      **** 
  24:cQueue.h      **** #define q_pull				q_pop							//!< \deprecated q_pull was already used in cQueue lib, alias is made
  25:cQueue.h      **** #define q_nbRecs			q_getCount						//!< \deprecated q_nbRecs was already used in cQueue lib, alias 
  26:cQueue.h      **** #define q_clean				q_flush							//!< \deprecated q_clean was already used in cQueue lib, alias is 
  27:cQueue.h      **** 
  28:cQueue.h      **** 
  29:cQueue.h      **** /*!\enum enumQueueType
  30:cQueue.h      **** ** \brief Queue behavior enumeration (FIFO, LIFO)
  31:cQueue.h      **** **/
  32:cQueue.h      **** typedef enum enumQueueType {
  33:cQueue.h      **** 	FIFO = 0,	//!< First In First Out behavior
  34:cQueue.h      **** 	LIFO = 1	//!< Last In First Out behavior
  35:cQueue.h      **** } QueueType;
  36:cQueue.h      **** 
  37:cQueue.h      **** 
  38:cQueue.h      **** /*!\struct Queue_t
  39:cQueue.h      **** ** \brief Queue type structure holding all variables to handle the queue
  40:cQueue.h      **** **/
  41:cQueue.h      **** typedef struct Queue_t {
  42:cQueue.h      **** 	QueueType	impl;		//!< Queue implementation: FIFO LIFO
  43:cQueue.h      **** 	bool		ovw;		//!< Overwrite previous records when queue is full allowed
  44:cQueue.h      **** 	uint16_t	rec_nb;		//!< number of records in the queue
  45:cQueue.h      **** 	uint16_t	rec_sz;		//!< Size of a record
  46:cQueue.h      **** 	uint32_t	queue_sz;	//!< Size of the full queue
  47:cQueue.h      **** 	uint8_t *	queue;		//!< Queue start pointer (when allocated)
  48:cQueue.h      **** 
  49:cQueue.h      **** 	uint16_t	in;			//!< number of records pushed into the queue
  50:cQueue.h      **** 	uint16_t	out;		//!< number of records pulled from the queue (only for FIFO)
  51:cQueue.h      **** 	uint16_t	cnt;		//!< number of records not retrieved from the queue
  52:cQueue.h      **** 	uint16_t	init;		//!< set to QUEUE_INITIALIZED after successful init of the queue and reset when ki
  53:cQueue.h      **** } Queue_t;
  54:cQueue.h      **** 
  55:cQueue.h      **** 
  56:cQueue.h      **** /*!	\brief Queue initialization
  57:cQueue.h      **** **	\param [in,out] q - pointer of queue to handle
  58:cQueue.h      **** **	\param [in] size_rec - size of a record in the queue
  59:cQueue.h      **** **	\param [in] nb_recs - number of records in the queue
  60:cQueue.h      **** **	\param [in] type - Queue implementation type: FIFO, LIFO
  61:cQueue.h      **** **	\param [in] overwrite - Overwrite previous records when queue is full
  62:cQueue.h      **** **	\return NULL when allocation not possible, Queue tab address when successful
  63:cQueue.h      **** **/
  64:cQueue.h      **** void * __attribute__((nonnull)) q_init(Queue_t * const q, const uint16_t size_rec, const uint16_t n
  65:cQueue.h      **** 
  66:cQueue.h      **** /*!	\brief Queue destructor: release dynamically allocated queue
  67:cQueue.h      **** **	\param [in,out] q - pointer of queue to handle
  68:cQueue.h      **** **/
  69:cQueue.h      **** void __attribute__((nonnull)) q_kill(Queue_t * const q);
  70:cQueue.h      **** 
  71:cQueue.h      **** /*!	\brief Flush queue, restarting from empty queue
  72:cQueue.h      **** **	\param [in,out] q - pointer of queue to handle
  73:cQueue.h      **** **/
  74:cQueue.h      **** void __attribute__((nonnull)) q_flush(Queue_t * const q);
  75:cQueue.h      **** 
  76:cQueue.h      **** /*!	\brief get initialization state of the queue
ARM GAS  C:\Users\dshen\AppData\Local\Temp\ccGr5xLg.s 			page 7


  77:cQueue.h      **** **	\param [in] q - pointer of queue to handle
  78:cQueue.h      **** **	\return Queue initialization status
  79:cQueue.h      **** **	\retval true if queue is allocated
  80:cQueue.h      **** **	\retval false is queue is not allocated
  81:cQueue.h      **** **/
  82:cQueue.h      **** inline bool __attribute__((nonnull, always_inline)) q_isInitialized(const Queue_t * const q) {
  83:cQueue.h      **** 	return (q->init == QUEUE_INITIALIZED) ? true : false; }
  84:cQueue.h      **** 
  85:cQueue.h      **** /*!	\brief get emptiness state of the queue
  86:cQueue.h      **** **	\param [in] q - pointer of queue to handle
  87:cQueue.h      **** **	\return Queue emptiness status
  88:cQueue.h      **** **	\retval true if queue is empty
  89:cQueue.h      **** **	\retval false is not empty
  90:cQueue.h      **** **/
  91:cQueue.h      **** inline bool __attribute__((nonnull, always_inline)) q_isEmpty(const Queue_t * const q) {
  92:cQueue.h      **** 	return (!q->cnt) ? true : false; }
  93:cQueue.h      **** 
  94:cQueue.h      **** /*!	\brief get fullness state of the queue
  95:cQueue.h      **** **	\param [in] q - pointer of queue to handle
  96:cQueue.h      **** **	\return Queue fullness status
  97:cQueue.h      **** **	\retval true if queue is full
  98:cQueue.h      **** **	\retval false is not full
  99:cQueue.h      **** **/
 100:cQueue.h      **** inline bool __attribute__((nonnull, always_inline)) q_isFull(const Queue_t * const q) {
 101:cQueue.h      **** 	return (q->cnt == q->rec_nb) ? true : false; }
 172              		.loc 2 101 0
 173 0006 828A     		ldrh	r2, [r0, #20]
 174 0008 4488     		ldrh	r4, [r0, #2]
 175              	.LVL13:
 176              	.LBE30:
 177              	.LBE29:
 178              		.loc 1 80 0
 179 000a 9442     		cmp	r4, r2
 180 000c 27D0     		beq	.L11
 181              	.L10:
 182 000e 0446     		mov	r4, r0
  81:cQueue.c      **** 
  82:cQueue.c      **** 	uint8_t * const pStart = q->queue + (q->rec_sz * q->in);
 183              		.loc 1 82 0
 184 0010 C068     		ldr	r0, [r0, #12]
 185              	.LVL14:
 186 0012 A388     		ldrh	r3, [r4, #4]
 187 0014 258A     		ldrh	r5, [r4, #16]
 188              	.LVL15:
  83:cQueue.c      **** 	memcpy(pStart, record, q->rec_sz);
 189              		.loc 1 83 0
 190 0016 1A46     		mov	r2, r3
 191 0018 05FB0300 		mla	r0, r5, r3, r0
 192              	.LVL16:
 193 001c FFF7FEFF 		bl	memcpy
 194              	.LVL17:
  84:cQueue.c      **** 
  85:cQueue.c      **** 	inc_idx(&q->in, q->rec_nb, 0);
 195              		.loc 1 85 0
 196 0020 6288     		ldrh	r2, [r4, #2]
 197              	.LVL18:
 198              	.LBB31:
ARM GAS  C:\Users\dshen\AppData\Local\Temp\ccGr5xLg.s 			page 8


 199              	.LBB32:
  25:cQueue.c      **** 	else					{ *pIdx = start; }
 200              		.loc 1 25 0
 201 0022 238A     		ldrh	r3, [r4, #16]
 202 0024 511E     		subs	r1, r2, #1
 203 0026 8B42     		cmp	r3, r1
 204 0028 02DA     		bge	.L12
 205 002a 0133     		adds	r3, r3, #1
 206 002c 2382     		strh	r3, [r4, #16]	@ movhi
 207 002e 01E0     		b	.L13
 208              	.L12:
  26:cQueue.c      **** }
 209              		.loc 1 26 0
 210 0030 0023     		movs	r3, #0
 211 0032 2382     		strh	r3, [r4, #16]	@ movhi
 212              	.L13:
 213              	.LVL19:
 214              	.LBE32:
 215              	.LBE31:
 216              	.LBB33:
 217              	.LBB34:
 218              		.loc 2 101 0
 219 0034 A38A     		ldrh	r3, [r4, #20]
 220              	.LVL20:
 221              	.LBE34:
 222              	.LBE33:
  86:cQueue.c      **** 
  87:cQueue.c      **** 	if (!q_isFull(q))	{ q->cnt++; }	// Increase records count
 223              		.loc 1 87 0
 224 0036 9A42     		cmp	r2, r3
 225 0038 03D0     		beq	.L14
 226              		.loc 1 87 0 is_stmt 0 discriminator 1
 227 003a 0133     		adds	r3, r3, #1
 228 003c A382     		strh	r3, [r4, #20]	@ movhi
  88:cQueue.c      **** 	else if (q->ovw)					// Queue is full and overwrite is allowed
  89:cQueue.c      **** 	{
  90:cQueue.c      **** 		if (q->impl == FIFO)			{ inc_idx(&q->out, q->rec_nb, 0); }	// as oldest record is overwritten, in
  91:cQueue.c      **** 		//else if (q->impl == LIFO)	{}										// Nothing to do in this case
  92:cQueue.c      **** 	}
  93:cQueue.c      **** 
  94:cQueue.c      **** 	return true;
 229              		.loc 1 94 0 is_stmt 1 discriminator 1
 230 003e 0123     		movs	r3, #1
 231 0040 0DE0     		b	.L11
 232              	.L14:
  88:cQueue.c      **** 	else if (q->ovw)					// Queue is full and overwrite is allowed
 233              		.loc 1 88 0
 234 0042 6378     		ldrb	r3, [r4, #1]	@ zero_extendqisi2
 235 0044 53B1     		cbz	r3, .L16
  90:cQueue.c      **** 		//else if (q->impl == LIFO)	{}										// Nothing to do in this case
 236              		.loc 1 90 0
 237 0046 2278     		ldrb	r2, [r4]	@ zero_extendqisi2
 238 0048 4AB9     		cbnz	r2, .L11
 239              	.LVL21:
 240              	.LBB35:
 241              	.LBB36:
  25:cQueue.c      **** 	else					{ *pIdx = start; }
ARM GAS  C:\Users\dshen\AppData\Local\Temp\ccGr5xLg.s 			page 9


 242              		.loc 1 25 0 discriminator 1
 243 004a 628A     		ldrh	r2, [r4, #18]
 244 004c 9142     		cmp	r1, r2
 245 004e 02DD     		ble	.L15
  25:cQueue.c      **** 	else					{ *pIdx = start; }
 246              		.loc 1 25 0 is_stmt 0
 247 0050 0132     		adds	r2, r2, #1
 248 0052 6282     		strh	r2, [r4, #18]	@ movhi
 249 0054 03E0     		b	.L11
 250              	.L15:
  26:cQueue.c      **** }
 251              		.loc 1 26 0 is_stmt 1
 252 0056 0022     		movs	r2, #0
 253 0058 6282     		strh	r2, [r4, #18]	@ movhi
 254 005a 00E0     		b	.L11
 255              	.LVL22:
 256              	.L16:
 257              	.LBE36:
 258              	.LBE35:
 259              		.loc 1 94 0
 260 005c 0123     		movs	r3, #1
 261              	.LVL23:
 262              	.L11:
  95:cQueue.c      **** }
 263              		.loc 1 95 0
 264 005e 1846     		mov	r0, r3
 265 0060 38BD     		pop	{r3, r4, r5, pc}
 266              		.cfi_endproc
 267              	.LFE12:
 268              		.size	q_push, .-q_push
 269 0062 00BF     		.section	.text.q_pop,"ax",%progbits
 270              		.align	2
 271              		.global	q_pop
 272              		.thumb
 273              		.thumb_func
 274              		.type	q_pop, %function
 275              	q_pop:
 276              	.LFB13:
  96:cQueue.c      **** 
  97:cQueue.c      **** bool __attribute__((nonnull)) q_pop(Queue_t * const q, void * const record)
  98:cQueue.c      **** {
 277              		.loc 1 98 0
 278              		.cfi_startproc
 279              		@ args = 0, pretend = 0, frame = 0
 280              		@ frame_needed = 0, uses_anonymous_args = 0
 281              	.LVL24:
 282 0000 38B5     		push	{r3, r4, r5, lr}
 283              		.cfi_def_cfa_offset 16
 284              		.cfi_offset 3, -16
 285              		.cfi_offset 4, -12
 286              		.cfi_offset 5, -8
 287              		.cfi_offset 14, -4
 288              	.LVL25:
 289              	.LBB37:
 290              	.LBB38:
  92:cQueue.h      **** 
 291              		.loc 2 92 0
ARM GAS  C:\Users\dshen\AppData\Local\Temp\ccGr5xLg.s 			page 10


 292 0002 838A     		ldrh	r3, [r0, #20]
 293              	.LVL26:
 294              	.LBE38:
 295              	.LBE37:
  99:cQueue.c      **** 	const uint8_t * pStart;
 100:cQueue.c      **** 
 101:cQueue.c      **** 	if (q_isEmpty(q))	{ return false; }	// No more records
 296              		.loc 1 101 0
 297 0004 5BB3     		cbz	r3, .L25
 102:cQueue.c      **** 
 103:cQueue.c      **** 	if (q->impl == FIFO)
 298              		.loc 1 103 0
 299 0006 0378     		ldrb	r3, [r0]	@ zero_extendqisi2
 300 0008 73B9     		cbnz	r3, .L20
 104:cQueue.c      **** 	{
 105:cQueue.c      **** 		pStart = q->queue + (q->rec_sz * q->out);
 301              		.loc 1 105 0
 302 000a C568     		ldr	r5, [r0, #12]
 303 000c 8388     		ldrh	r3, [r0, #4]
 304 000e 428A     		ldrh	r2, [r0, #18]
 305 0010 02FB0355 		mla	r5, r2, r3, r5
 306              	.LVL27:
 106:cQueue.c      **** 		inc_idx(&q->out, q->rec_nb, 0);
 307              		.loc 1 106 0
 308 0014 4388     		ldrh	r3, [r0, #2]
 309              	.LVL28:
 310              	.LBB39:
 311              	.LBB40:
  25:cQueue.c      **** 	else					{ *pIdx = start; }
 312              		.loc 1 25 0
 313 0016 013B     		subs	r3, r3, #1
 314              	.LVL29:
 315 0018 9A42     		cmp	r2, r3
 316 001a 02DA     		bge	.L21
 317 001c 0132     		adds	r2, r2, #1
 318 001e 4282     		strh	r2, [r0, #18]	@ movhi
 319 0020 11E0     		b	.L22
 320              	.L21:
  26:cQueue.c      **** }
 321              		.loc 1 26 0
 322 0022 0023     		movs	r3, #0
 323              	.LVL30:
 324 0024 4382     		strh	r3, [r0, #18]	@ movhi
 325 0026 0EE0     		b	.L22
 326              	.LVL31:
 327              	.L20:
 328              	.LBE40:
 329              	.LBE39:
 107:cQueue.c      **** 	}
 108:cQueue.c      **** 	else if (q->impl == LIFO)
 330              		.loc 1 108 0
 331 0028 012B     		cmp	r3, #1
 332 002a 1AD1     		bne	.L26
 109:cQueue.c      **** 	{
 110:cQueue.c      **** 		dec_idx(&q->in, q->rec_nb, 0);
 333              		.loc 1 110 0
 334 002c 4288     		ldrh	r2, [r0, #2]
ARM GAS  C:\Users\dshen\AppData\Local\Temp\ccGr5xLg.s 			page 11


 335              	.LVL32:
 336              	.LBB41:
 337              	.LBB42:
  37:cQueue.c      **** 	else					{ *pIdx = end - 1; }
 338              		.loc 1 37 0
 339 002e 038A     		ldrh	r3, [r0, #16]
 340 0030 13B1     		cbz	r3, .L23
 341 0032 013B     		subs	r3, r3, #1
 342 0034 0382     		strh	r3, [r0, #16]	@ movhi
 343 0036 01E0     		b	.L24
 344              	.L23:
  38:cQueue.c      **** }
 345              		.loc 1 38 0
 346 0038 013A     		subs	r2, r2, #1
 347              	.LVL33:
 348 003a 0282     		strh	r2, [r0, #16]	@ movhi
 349              	.LVL34:
 350              	.L24:
 351              	.LBE42:
 352              	.LBE41:
 111:cQueue.c      **** 		pStart = q->queue + (q->rec_sz * q->in);
 353              		.loc 1 111 0
 354 003c C268     		ldr	r2, [r0, #12]
 355 003e 8388     		ldrh	r3, [r0, #4]
 356 0040 058A     		ldrh	r5, [r0, #16]
 357 0042 05FB0325 		mla	r5, r5, r3, r2
 358              	.LVL35:
 359              	.L22:
 360 0046 0B46     		mov	r3, r1
 361 0048 0446     		mov	r4, r0
 112:cQueue.c      **** 	}
 113:cQueue.c      **** 	else	{ return false; }
 114:cQueue.c      **** 
 115:cQueue.c      **** 	memcpy(record, pStart, q->rec_sz);
 362              		.loc 1 115 0
 363 004a 8288     		ldrh	r2, [r0, #4]
 364 004c 2946     		mov	r1, r5
 365              	.LVL36:
 366 004e 1846     		mov	r0, r3
 367              	.LVL37:
 368 0050 FFF7FEFF 		bl	memcpy
 369              	.LVL38:
 116:cQueue.c      **** 	q->cnt--;	// Decrease records count
 370              		.loc 1 116 0
 371 0054 A38A     		ldrh	r3, [r4, #20]
 372 0056 013B     		subs	r3, r3, #1
 373 0058 A382     		strh	r3, [r4, #20]	@ movhi
 117:cQueue.c      **** 	return true;
 374              		.loc 1 117 0
 375 005a 0120     		movs	r0, #1
 376 005c 38BD     		pop	{r3, r4, r5, pc}
 377              	.LVL39:
 378              	.L25:
 101:cQueue.c      **** 
 379              		.loc 1 101 0
 380 005e 0020     		movs	r0, #0
 381              	.LVL40:
ARM GAS  C:\Users\dshen\AppData\Local\Temp\ccGr5xLg.s 			page 12


 382 0060 38BD     		pop	{r3, r4, r5, pc}
 383              	.LVL41:
 384              	.L26:
 113:cQueue.c      **** 
 385              		.loc 1 113 0
 386 0062 0020     		movs	r0, #0
 387              	.LVL42:
 118:cQueue.c      **** }
 388              		.loc 1 118 0
 389 0064 38BD     		pop	{r3, r4, r5, pc}
 390              		.cfi_endproc
 391              	.LFE13:
 392              		.size	q_pop, .-q_pop
 393 0066 00BF     		.section	.text.q_peek,"ax",%progbits
 394              		.align	2
 395              		.global	q_peek
 396              		.thumb
 397              		.thumb_func
 398              		.type	q_peek, %function
 399              	q_peek:
 400              	.LFB14:
 119:cQueue.c      **** 
 120:cQueue.c      **** bool __attribute__((nonnull)) q_peek(const Queue_t * const q, void * const record)
 121:cQueue.c      **** {
 401              		.loc 1 121 0
 402              		.cfi_startproc
 403              		@ args = 0, pretend = 0, frame = 0
 404              		@ frame_needed = 0, uses_anonymous_args = 0
 405              	.LVL43:
 406 0000 38B5     		push	{r3, r4, r5, lr}
 407              		.cfi_def_cfa_offset 16
 408              		.cfi_offset 3, -16
 409              		.cfi_offset 4, -12
 410              		.cfi_offset 5, -8
 411              		.cfi_offset 14, -4
 412              	.LVL44:
 413              	.LBB43:
 414              	.LBB44:
  92:cQueue.h      **** 
 415              		.loc 2 92 0
 416 0002 838A     		ldrh	r3, [r0, #20]
 417              	.LVL45:
 418              	.LBE44:
 419              	.LBE43:
 122:cQueue.c      **** 	const uint8_t * pStart;
 123:cQueue.c      **** 
 124:cQueue.c      **** 	if (q_isEmpty(q))	{ return false; }	// No more records
 420              		.loc 1 124 0
 421 0004 EBB1     		cbz	r3, .L34
 125:cQueue.c      **** 
 126:cQueue.c      **** 	if (q->impl == FIFO)
 422              		.loc 1 126 0
 423 0006 0378     		ldrb	r3, [r0]	@ zero_extendqisi2
 424 0008 2BB9     		cbnz	r3, .L30
 127:cQueue.c      **** 	{
 128:cQueue.c      **** 		pStart = q->queue + (q->rec_sz * q->out);
 425              		.loc 1 128 0
ARM GAS  C:\Users\dshen\AppData\Local\Temp\ccGr5xLg.s 			page 13


 426 000a C268     		ldr	r2, [r0, #12]
 427 000c 8388     		ldrh	r3, [r0, #4]
 428 000e 458A     		ldrh	r5, [r0, #18]
 429 0010 05FB0325 		mla	r5, r5, r3, r2
 430              	.LVL46:
 431 0014 0DE0     		b	.L31
 432              	.LVL47:
 433              	.L30:
 129:cQueue.c      **** 		// No change on out var as it's just a peek
 130:cQueue.c      **** 	}
 131:cQueue.c      **** 	else if (q->impl == LIFO)
 434              		.loc 1 131 0
 435 0016 012B     		cmp	r3, #1
 436 0018 15D1     		bne	.L35
 437              	.LBB45:
 132:cQueue.c      **** 	{
 133:cQueue.c      **** 		uint16_t rec = q->in;	// Temporary var for peek (no change on q->in with dec_idx)
 438              		.loc 1 133 0
 439 001a 028A     		ldrh	r2, [r0, #16]
 440              	.LVL48:
 134:cQueue.c      **** 		dec_idx(&rec, q->rec_nb, 0);
 441              		.loc 1 134 0
 442 001c 4388     		ldrh	r3, [r0, #2]
 443              	.LVL49:
 444              	.LBB46:
 445              	.LBB47:
  37:cQueue.c      **** 	else					{ *pIdx = end - 1; }
 446              		.loc 1 37 0
 447 001e 12B1     		cbz	r2, .L32
 448 0020 013A     		subs	r2, r2, #1
 449              	.LVL50:
 450 0022 92B2     		uxth	r2, r2
 451              	.LVL51:
 452 0024 01E0     		b	.L33
 453              	.L32:
  38:cQueue.c      **** }
 454              		.loc 1 38 0
 455 0026 5A1E     		subs	r2, r3, #1
 456              	.LVL52:
 457 0028 92B2     		uxth	r2, r2
 458              	.LVL53:
 459              	.L33:
 460              	.LBE47:
 461              	.LBE46:
 135:cQueue.c      **** 		pStart = q->queue + (q->rec_sz * rec);
 462              		.loc 1 135 0
 463 002a C568     		ldr	r5, [r0, #12]
 464 002c 8388     		ldrh	r3, [r0, #4]
 465 002e 02FB0355 		mla	r5, r2, r3, r5
 466              	.LVL54:
 467              	.L31:
 468 0032 0C46     		mov	r4, r1
 469              	.LBE45:
 136:cQueue.c      **** 	}
 137:cQueue.c      **** 	else	{ return false; }
 138:cQueue.c      **** 
 139:cQueue.c      **** 	memcpy(record, pStart, q->rec_sz);
ARM GAS  C:\Users\dshen\AppData\Local\Temp\ccGr5xLg.s 			page 14


 470              		.loc 1 139 0
 471 0034 8288     		ldrh	r2, [r0, #4]
 472 0036 2946     		mov	r1, r5
 473              	.LVL55:
 474 0038 2046     		mov	r0, r4
 475              	.LVL56:
 476 003a FFF7FEFF 		bl	memcpy
 477              	.LVL57:
 140:cQueue.c      **** 	return true;
 478              		.loc 1 140 0
 479 003e 0120     		movs	r0, #1
 480 0040 38BD     		pop	{r3, r4, r5, pc}
 481              	.LVL58:
 482              	.L34:
 124:cQueue.c      **** 
 483              		.loc 1 124 0
 484 0042 0020     		movs	r0, #0
 485              	.LVL59:
 486 0044 38BD     		pop	{r3, r4, r5, pc}
 487              	.LVL60:
 488              	.L35:
 137:cQueue.c      **** 
 489              		.loc 1 137 0
 490 0046 0020     		movs	r0, #0
 491              	.LVL61:
 141:cQueue.c      **** }
 492              		.loc 1 141 0
 493 0048 38BD     		pop	{r3, r4, r5, pc}
 494              		.cfi_endproc
 495              	.LFE14:
 496              		.size	q_peek, .-q_peek
 497 004a 00BF     		.section	.text.q_drop,"ax",%progbits
 498              		.align	2
 499              		.global	q_drop
 500              		.thumb
 501              		.thumb_func
 502              		.type	q_drop, %function
 503              	q_drop:
 504              	.LFB15:
 142:cQueue.c      **** 
 143:cQueue.c      **** bool __attribute__((nonnull)) q_drop(Queue_t * const q)
 144:cQueue.c      **** {
 505              		.loc 1 144 0
 506              		.cfi_startproc
 507              		@ args = 0, pretend = 0, frame = 0
 508              		@ frame_needed = 0, uses_anonymous_args = 0
 509              		@ link register save eliminated.
 510              	.LVL62:
 511              	.LBB48:
 512              	.LBB49:
  92:cQueue.h      **** 
 513              		.loc 2 92 0
 514 0000 838A     		ldrh	r3, [r0, #20]
 515              	.LVL63:
 516              	.LBE49:
 517              	.LBE48:
 145:cQueue.c      **** 	if (q_isEmpty(q))			{ return false; }	// No more records
ARM GAS  C:\Users\dshen\AppData\Local\Temp\ccGr5xLg.s 			page 15


 518              		.loc 1 145 0
 519 0002 D3B1     		cbz	r3, .L43
 146:cQueue.c      **** 
 147:cQueue.c      **** 	if (q->impl == FIFO)		{ inc_idx(&q->out, q->rec_nb, 0); }
 520              		.loc 1 147 0
 521 0004 0278     		ldrb	r2, [r0]	@ zero_extendqisi2
 522 0006 52B9     		cbnz	r2, .L39
 523              		.loc 1 147 0 is_stmt 0 discriminator 1
 524 0008 4288     		ldrh	r2, [r0, #2]
 525              	.LVL64:
 526              	.LBB50:
 527              	.LBB51:
  25:cQueue.c      **** 	else					{ *pIdx = start; }
 528              		.loc 1 25 0 is_stmt 1 discriminator 1
 529 000a 418A     		ldrh	r1, [r0, #18]
 530 000c 013A     		subs	r2, r2, #1
 531              	.LVL65:
 532 000e 9142     		cmp	r1, r2
 533 0010 02DA     		bge	.L40
  25:cQueue.c      **** 	else					{ *pIdx = start; }
 534              		.loc 1 25 0 is_stmt 0
 535 0012 0131     		adds	r1, r1, #1
 536 0014 4182     		strh	r1, [r0, #18]	@ movhi
 537 0016 0CE0     		b	.L41
 538              	.L40:
  26:cQueue.c      **** }
 539              		.loc 1 26 0 is_stmt 1
 540 0018 0022     		movs	r2, #0
 541              	.LVL66:
 542 001a 4282     		strh	r2, [r0, #18]	@ movhi
 543 001c 09E0     		b	.L41
 544              	.LVL67:
 545              	.L39:
 546              	.LBE51:
 547              	.LBE50:
 148:cQueue.c      **** 	else if (q->impl == LIFO)	{ dec_idx(&q->in, q->rec_nb, 0); }
 548              		.loc 1 148 0
 549 001e 012A     		cmp	r2, #1
 550 0020 0DD1     		bne	.L44
 551              		.loc 1 148 0 is_stmt 0 discriminator 1
 552 0022 4188     		ldrh	r1, [r0, #2]
 553              	.LVL68:
 554              	.LBB52:
 555              	.LBB53:
  37:cQueue.c      **** 	else					{ *pIdx = end - 1; }
 556              		.loc 1 37 0 is_stmt 1 discriminator 1
 557 0024 028A     		ldrh	r2, [r0, #16]
 558 0026 12B1     		cbz	r2, .L42
  37:cQueue.c      **** 	else					{ *pIdx = end - 1; }
 559              		.loc 1 37 0 is_stmt 0
 560 0028 013A     		subs	r2, r2, #1
 561 002a 0282     		strh	r2, [r0, #16]	@ movhi
 562 002c 01E0     		b	.L41
 563              	.L42:
  38:cQueue.c      **** }
 564              		.loc 1 38 0 is_stmt 1
 565 002e 0139     		subs	r1, r1, #1
ARM GAS  C:\Users\dshen\AppData\Local\Temp\ccGr5xLg.s 			page 16


 566              	.LVL69:
 567 0030 0182     		strh	r1, [r0, #16]	@ movhi
 568              	.LVL70:
 569              	.L41:
 570              	.LBE53:
 571              	.LBE52:
 149:cQueue.c      **** 	else						{ return false; }
 150:cQueue.c      **** 
 151:cQueue.c      **** 	q->cnt--;	// Decrease records count
 572              		.loc 1 151 0
 573 0032 013B     		subs	r3, r3, #1
 574 0034 8382     		strh	r3, [r0, #20]	@ movhi
 152:cQueue.c      **** 	return true;
 575              		.loc 1 152 0
 576 0036 0120     		movs	r0, #1
 577              	.LVL71:
 578 0038 7047     		bx	lr
 579              	.LVL72:
 580              	.L43:
 145:cQueue.c      **** 
 581              		.loc 1 145 0
 582 003a 0020     		movs	r0, #0
 583              	.LVL73:
 584 003c 7047     		bx	lr
 585              	.LVL74:
 586              	.L44:
 149:cQueue.c      **** 	else						{ return false; }
 587              		.loc 1 149 0
 588 003e 0020     		movs	r0, #0
 589              	.LVL75:
 153:cQueue.c      **** }
 590              		.loc 1 153 0
 591 0040 7047     		bx	lr
 592              		.cfi_endproc
 593              	.LFE15:
 594              		.size	q_drop, .-q_drop
 595 0042 00BF     		.section	.text.q_peekIdx,"ax",%progbits
 596              		.align	2
 597              		.global	q_peekIdx
 598              		.thumb
 599              		.thumb_func
 600              		.type	q_peekIdx, %function
 601              	q_peekIdx:
 602              	.LFB16:
 154:cQueue.c      **** 
 155:cQueue.c      **** bool __attribute__((nonnull)) q_peekIdx(const Queue_t * const q, void * const record, const uint16_
 156:cQueue.c      **** {
 603              		.loc 1 156 0
 604              		.cfi_startproc
 605              		@ args = 0, pretend = 0, frame = 0
 606              		@ frame_needed = 0, uses_anonymous_args = 0
 607              	.LVL76:
 608 0000 70B5     		push	{r4, r5, r6, lr}
 609              		.cfi_def_cfa_offset 16
 610              		.cfi_offset 4, -16
 611              		.cfi_offset 5, -12
 612              		.cfi_offset 6, -8
ARM GAS  C:\Users\dshen\AppData\Local\Temp\ccGr5xLg.s 			page 17


 613              		.cfi_offset 14, -4
 157:cQueue.c      **** 	const uint8_t * pStart;
 158:cQueue.c      **** 
 159:cQueue.c      **** 	if (idx + 1 > q_getCount(q))	{ return false; }	// Index out of range
 614              		.loc 1 159 0
 615 0002 541C     		adds	r4, r2, #1
 616              	.LVL77:
 617              	.LBB54:
 618              	.LBB55:
 102:cQueue.h      **** 
 103:cQueue.h      **** /*!	\brief get size of queue
 104:cQueue.h      **** **	\remark Size in bytes (like sizeof)
 105:cQueue.h      **** **	\param [in] q - pointer of queue to handle
 106:cQueue.h      **** **	\return Size of queue in bytes
 107:cQueue.h      **** **/
 108:cQueue.h      **** inline uint32_t __attribute__((nonnull, always_inline)) q_sizeof(const Queue_t * const q) {
 109:cQueue.h      **** 	return q->queue_sz; }
 110:cQueue.h      **** 
 111:cQueue.h      **** /*!	\brief get number of records in the queue
 112:cQueue.h      **** **	\param [in] q - pointer of queue to handle
 113:cQueue.h      **** **	\return Number of records stored in the queue
 114:cQueue.h      **** **/
 115:cQueue.h      **** inline uint16_t __attribute__((nonnull, always_inline)) q_getCount(const Queue_t * const q) {
 116:cQueue.h      **** 	return q->cnt; }
 619              		.loc 2 116 0
 620 0004 838A     		ldrh	r3, [r0, #20]
 621              	.LVL78:
 622              	.LBE55:
 623              	.LBE54:
 624              		.loc 1 159 0
 625 0006 9C42     		cmp	r4, r3
 626 0008 1BDC     		bgt	.L49
 160:cQueue.c      **** 
 161:cQueue.c      **** 	if (q->impl == FIFO)
 627              		.loc 1 161 0
 628 000a 0378     		ldrb	r3, [r0]	@ zero_extendqisi2
 629 000c 5BB9     		cbnz	r3, .L47
 162:cQueue.c      **** 	{
 163:cQueue.c      **** 		pStart = q->queue + (q->rec_sz * ((q->out + idx) % q->rec_nb));
 630              		.loc 1 163 0
 631 000e C668     		ldr	r6, [r0, #12]
 632 0010 8388     		ldrh	r3, [r0, #4]
 633 0012 448A     		ldrh	r4, [r0, #18]
 634 0014 2244     		add	r2, r2, r4
 635              	.LVL79:
 636 0016 4588     		ldrh	r5, [r0, #2]
 637 0018 92FBF5F4 		sdiv	r4, r2, r5
 638 001c 05FB1422 		mls	r2, r5, r4, r2
 639 0020 02FB0365 		mla	r5, r2, r3, r6
 640              	.LVL80:
 641 0024 05E0     		b	.L48
 642              	.LVL81:
 643              	.L47:
 164:cQueue.c      **** 	}
 165:cQueue.c      **** 	else if (q->impl == LIFO)
 644              		.loc 1 165 0
 645 0026 012B     		cmp	r3, #1
ARM GAS  C:\Users\dshen\AppData\Local\Temp\ccGr5xLg.s 			page 18


 646 0028 0DD1     		bne	.L50
 166:cQueue.c      **** 	{
 167:cQueue.c      **** 		pStart = q->queue + (q->rec_sz * idx);
 647              		.loc 1 167 0
 648 002a C568     		ldr	r5, [r0, #12]
 649 002c 8388     		ldrh	r3, [r0, #4]
 650 002e 02FB0355 		mla	r5, r2, r3, r5
 651              	.LVL82:
 652              	.L48:
 653 0032 0C46     		mov	r4, r1
 168:cQueue.c      **** 	}
 169:cQueue.c      **** 	else	{ return false; }
 170:cQueue.c      **** 
 171:cQueue.c      **** 	memcpy(record, pStart, q->rec_sz);
 654              		.loc 1 171 0
 655 0034 8288     		ldrh	r2, [r0, #4]
 656 0036 2946     		mov	r1, r5
 657              	.LVL83:
 658 0038 2046     		mov	r0, r4
 659              	.LVL84:
 660 003a FFF7FEFF 		bl	memcpy
 661              	.LVL85:
 172:cQueue.c      **** 	return true;
 662              		.loc 1 172 0
 663 003e 0120     		movs	r0, #1
 664 0040 70BD     		pop	{r4, r5, r6, pc}
 665              	.LVL86:
 666              	.L49:
 159:cQueue.c      **** 
 667              		.loc 1 159 0
 668 0042 0020     		movs	r0, #0
 669              	.LVL87:
 670 0044 70BD     		pop	{r4, r5, r6, pc}
 671              	.LVL88:
 672              	.L50:
 169:cQueue.c      **** 
 673              		.loc 1 169 0
 674 0046 0020     		movs	r0, #0
 675              	.LVL89:
 173:cQueue.c      **** }
 676              		.loc 1 173 0
 677 0048 70BD     		pop	{r4, r5, r6, pc}
 678              		.cfi_endproc
 679              	.LFE16:
 680              		.size	q_peekIdx, .-q_peekIdx
 681 004a 00BF     		.text
 682              	.Letext0:
 683              		.file 3 "c:\\program files (x86)\\cypress\\psoc creator\\4.3\\psoc creator\\import\\gnu\\arm\\5.4.
 684              		.file 4 "c:\\program files (x86)\\cypress\\psoc creator\\4.3\\psoc creator\\import\\gnu\\arm\\5.4.
 685              		.file 5 "c:\\program files (x86)\\cypress\\psoc creator\\4.3\\psoc creator\\import\\gnu\\arm\\5.4.