ARM GAS  C:\Users\dshen\AppData\Local\Temp\ccgsGtVn.s 			page 1


   1              		.syntax unified
   2              		.cpu cortex-m3
   3              		.fpu softvfp
   4              		.eabi_attribute 20, 1
   5              		.eabi_attribute 21, 1
   6              		.eabi_attribute 23, 3
   7              		.eabi_attribute 24, 1
   8              		.eabi_attribute 25, 1
   9              		.eabi_attribute 26, 1
  10              		.eabi_attribute 30, 1
  11              		.eabi_attribute 34, 1
  12              		.eabi_attribute 18, 4
  13              		.thumb
  14              		.syntax unified
  15              		.file	"main.c"
  16              		.text
  17              	.Ltext0:
  18              		.cfi_sections	.debug_frame
  19              		.section	.text.ByteReceived,"ax",%progbits
  20              		.align	2
  21              		.global	ByteReceived
  22              		.thumb
  23              		.thumb_func
  24              		.type	ByteReceived, %function
  25              	ByteReceived:
  26              	.LFB71:
  27              		.file 1 "main.c"
   1:main.c        **** /* ========================================
   2:main.c        ****  *
   3:main.c        ****  * Copyright YOUR COMPANY, THE YEAR
   4:main.c        ****  * All Rights Reserved
   5:main.c        ****  * UNPUBLISHED, LICENSED SOFTWARE.
   6:main.c        ****  *
   7:main.c        ****  * CONFIDENTIAL AND PROPRIETARY INFORMATION
   8:main.c        ****  * WHICH IS THE PROPERTY OF your company.
   9:main.c        ****  *
  10:main.c        ****  * ========================================
  11:main.c        **** */
  12:main.c        **** #include "project.h"
  13:main.c        **** #include "cQueue.h"
  14:main.c        **** 
  15:main.c        **** uint8 ByteCount = 0;
  16:main.c        **** uint8 firstbyte = 0;
  17:main.c        **** // Flag that's set once we process an incoming message with a command.
  18:main.c        **** uint8 CommandReady = 0;
  19:main.c        **** 
  20:main.c        **** uint8 ReceivedBuffer[66];
  21:main.c        **** uint8 TransmitBuffer[3];
  22:main.c        **** 
  23:main.c        **** // Circular queue that holds notes.
  24:main.c        **** Queue_t noteQueue;
  25:main.c        **** // Number of notes to hold in queue at any time.
  26:main.c        **** uint16 queueSize = 50;
  27:main.c        **** 
  28:main.c        **** // Tempo in beats per minute.
  29:main.c        **** uint8 tempo = 30;
  30:main.c        **** 
ARM GAS  C:\Users\dshen\AppData\Local\Temp\ccgsGtVn.s 			page 2


  31:main.c        **** // Tracks if currentNote is ready to be sent to be played.
  32:main.c        **** uint8 noteReady = 0;
  33:main.c        **** // Frequency to be played.
  34:main.c        **** uint16 currentNote = 0;
  35:main.c        **** 
  36:main.c        **** // Clock rate of tempo timer [Hz].
  37:main.c        **** // TODO: Figure out if this can be read from TopDesign?
  38:main.c        **** uint16 clockRate = 100;
  39:main.c        **** 
  40:main.c        **** // Total unique number of notes.
  41:main.c        **** #define NUMNOTES 9
  42:main.c        **** // Sequential number for notes, starting from E4 and ending on F5
  43:main.c        **** static uint8 noteNums[NUMNOTES] = {1, 2, 3, 4, 5, 6, 7, 8, 9};
  44:main.c        **** // Sequential frequencies [Hz] matching the array above.
  45:main.c        **** static uint16 noteFreqs[NUMNOTES] = {330, 349, 392, 440, 494, 523, 587, 659, 698};
  46:main.c        **** 
  47:main.c        **** // Reference.
  48:main.c        **** uint8 e4 = 1;
  49:main.c        **** uint8 f4 = 2;
  50:main.c        **** uint8 g4 = 3;
  51:main.c        **** uint8 a5 = 4;
  52:main.c        **** uint8 b5 = 5;
  53:main.c        **** uint8 c5 = 6;
  54:main.c        **** uint8 d5 = 7;
  55:main.c        **** uint8 e5 = 8;
  56:main.c        **** uint8 f5 = 9;
  57:main.c        **** 
  58:main.c        **** 
  59:main.c        **** // Help convert uint16 note frequency to Byte array.
  60:main.c        **** union uint16ToByte {
  61:main.c        ****     uint8 data[2];
  62:main.c        ****     uint16 number;
  63:main.c        **** } ConvertToByte;
  64:main.c        **** 
  65:main.c        **** struct command_protocol
  66:main.c        **** {
  67:main.c        ****     uint8 packet_size;
  68:main.c        ****     uint8 command;
  69:main.c        ****     uint8 buffer[64];
  70:main.c        **** } Command_Packet;
  71:main.c        **** 
  72:main.c        **** struct command_protocol Transmit_Packet;
  73:main.c        **** 
  74:main.c        **** /** Calculate the number of clock cycles between beats given a CLOCKRATE [Hz] and 
  75:main.c        ****  *  BPM */
  76:main.c        **** uint16 tempoToCycles(uint16 clockrate, uint8 bpm) {
  77:main.c        ****     clockrate = (float) clockrate;
  78:main.c        ****     bpm = (float) bpm;
  79:main.c        ****     return clockrate * 60.0 / bpm;    
  80:main.c        **** }
  81:main.c        **** 
  82:main.c        **** 
  83:main.c        **** /** Interrupt when we get a byte over serial. */
  84:main.c        **** CY_ISR(ByteReceived) { 
  28              		.loc 1 84 0
  29              		.cfi_startproc
  30              		@ args = 0, pretend = 0, frame = 0
ARM GAS  C:\Users\dshen\AppData\Local\Temp\ccgsGtVn.s 			page 3


  31              		@ frame_needed = 0, uses_anonymous_args = 0
  32 0000 38B5     		push	{r3, r4, r5, lr}
  33              		.cfi_def_cfa_offset 16
  34              		.cfi_offset 3, -16
  35              		.cfi_offset 4, -12
  36              		.cfi_offset 5, -8
  37              		.cfi_offset 14, -4
  85:main.c        ****     // LEDDrive_Write(1);
  86:main.c        ****     // Get the next Byte in the buffer and store in ReceivedBuffer,
  87:main.c        ****     // then increment ByteCount by 1
  88:main.c        ****     ReceivedBuffer[ByteCount++] = (uint8) (LabVIEW_UART_GetByte()&0x00ff);
  38              		.loc 1 88 0
  39 0002 094C     		ldr	r4, .L4
  40 0004 2578     		ldrb	r5, [r4]	@ zero_extendqisi2
  41 0006 6B1C     		adds	r3, r5, #1
  42 0008 2370     		strb	r3, [r4]
  43 000a FFF7FEFF 		bl	LabVIEW_UART_GetByte
  44              	.LVL0:
  45 000e 074B     		ldr	r3, .L4+4
  46 0010 5855     		strb	r0, [r3, r5]
  89:main.c        ****     // We're reading the first byte in the buffer since the firstbyte flag was
  90:main.c        ****     // set
  91:main.c        ****     if(firstbyte == 0)
  47              		.loc 1 91 0
  48 0012 6378     		ldrb	r3, [r4, #1]	@ zero_extendqisi2
  49 0014 2BB9     		cbnz	r3, .L2
  92:main.c        ****     {
  93:main.c        ****         // Set the counter to interrupt after all bytes have been read 
  94:main.c        ****         // from the buffer.
  95:main.c        ****         ByteCounter_WriteCompare(ReceivedBuffer[0]);
  50              		.loc 1 95 0
  51 0016 054B     		ldr	r3, .L4+4
  52 0018 1878     		ldrb	r0, [r3]	@ zero_extendqisi2
  53 001a FFF7FEFF 		bl	ByteCounter_WriteCompare
  54              	.LVL1:
  96:main.c        ****         // Unset firstbyte flag since we're reading subsequent bytes
  97:main.c        ****         firstbyte = 1;
  55              		.loc 1 97 0
  56 001e 0122     		movs	r2, #1
  57 0020 6270     		strb	r2, [r4, #1]
  58              	.L2:
  98:main.c        ****    
  99:main.c        ****     }
 100:main.c        ****     // Get the index of this byte. This line doesn't seem to do anything.
 101:main.c        ****     // ByteCounter_ReadCounter();
 102:main.c        ****     // Clear the interrupt by reading the status register.
 103:main.c        ****     ByteCounter_ReadStatusRegister();
  59              		.loc 1 103 0
  60 0022 FFF7FEFF 		bl	ByteCounter_ReadStatusRegister
  61              	.LVL2:
  62 0026 38BD     		pop	{r3, r4, r5, pc}
  63              	.L5:
  64              		.align	2
  65              	.L4:
  66 0028 00000000 		.word	.LANCHOR0
  67 002c 00000000 		.word	ReceivedBuffer
  68              		.cfi_endproc
ARM GAS  C:\Users\dshen\AppData\Local\Temp\ccgsGtVn.s 			page 4


  69              	.LFE71:
  70              		.size	ByteReceived, .-ByteReceived
  71              		.section	.text.CommandReceived,"ax",%progbits
  72              		.align	2
  73              		.global	CommandReceived
  74              		.thumb
  75              		.thumb_func
  76              		.type	CommandReceived, %function
  77              	CommandReceived:
  78              	.LFB72:
 104:main.c        ****     // LEDDrive_Write(0);
 105:main.c        ****     
 106:main.c        **** }
 107:main.c        **** 
 108:main.c        **** 
 109:main.c        **** /** Runs once all bytes have been read from the counter and is triggered by
 110:main.c        ****  *  the timer. */
 111:main.c        **** CY_ISR(CommandReceived) {
  79              		.loc 1 111 0
  80              		.cfi_startproc
  81              		@ args = 0, pretend = 0, frame = 0
  82              		@ frame_needed = 0, uses_anonymous_args = 0
  83 0000 08B5     		push	{r3, lr}
  84              		.cfi_def_cfa_offset 8
  85              		.cfi_offset 3, -8
  86              		.cfi_offset 14, -4
 112:main.c        ****     uint8 i;
 113:main.c        ****     
 114:main.c        ****     if(CommandReady == 0)
  87              		.loc 1 114 0
  88 0002 0F4B     		ldr	r3, .L11
  89 0004 9B78     		ldrb	r3, [r3, #2]	@ zero_extendqisi2
  90 0006 C3B9     		cbnz	r3, .L7
 115:main.c        ****     {
 116:main.c        ****         Command_Packet.packet_size = ReceivedBuffer[0];
  91              		.loc 1 116 0
  92 0008 0E4A     		ldr	r2, .L11+4
  93 000a 1078     		ldrb	r0, [r2]	@ zero_extendqisi2
  94 000c 0E4B     		ldr	r3, .L11+8
  95 000e 1870     		strb	r0, [r3]
 117:main.c        ****         // 0 if tempo payload and 1 if note payload
 118:main.c        ****         Command_Packet.command = ReceivedBuffer[1];
  96              		.loc 1 118 0
  97 0010 5278     		ldrb	r2, [r2, #1]	@ zero_extendqisi2
  98 0012 5A70     		strb	r2, [r3, #1]
  99              	.LVL3:
 119:main.c        ****     
 120:main.c        ****         for(i=0;i<(Command_Packet.packet_size - 2);i++)
 100              		.loc 1 120 0
 101 0014 0023     		movs	r3, #0
 102 0016 07E0     		b	.L8
 103              	.LVL4:
 104              	.L9:
 121:main.c        ****         {
 122:main.c        ****             Command_Packet.buffer[i] =  ReceivedBuffer[i+2];
 105              		.loc 1 122 0 discriminator 3
 106 0018 9A1C     		adds	r2, r3, #2
ARM GAS  C:\Users\dshen\AppData\Local\Temp\ccgsGtVn.s 			page 5


 107 001a 0A49     		ldr	r1, .L11+4
 108 001c 895C     		ldrb	r1, [r1, r2]	@ zero_extendqisi2
 109 001e 0A4A     		ldr	r2, .L11+8
 110 0020 1A44     		add	r2, r2, r3
 111 0022 9170     		strb	r1, [r2, #2]
 120:main.c        ****         {
 112              		.loc 1 120 0 discriminator 3
 113 0024 0133     		adds	r3, r3, #1
 114              	.LVL5:
 115 0026 DBB2     		uxtb	r3, r3
 116              	.LVL6:
 117              	.L8:
 120:main.c        ****         {
 118              		.loc 1 120 0 is_stmt 0 discriminator 1
 119 0028 821E     		subs	r2, r0, #2
 120 002a 9342     		cmp	r3, r2
 121 002c F4DB     		blt	.L9
 123:main.c        ****         }
 124:main.c        ****         
 125:main.c        ****         firstbyte = 0;
 122              		.loc 1 125 0 is_stmt 1
 123 002e 044B     		ldr	r3, .L11
 124              	.LVL7:
 125 0030 0022     		movs	r2, #0
 126 0032 5A70     		strb	r2, [r3, #1]
 126:main.c        ****         CommandReady = 1;
 127              		.loc 1 126 0
 128 0034 0121     		movs	r1, #1
 129 0036 9970     		strb	r1, [r3, #2]
 127:main.c        ****         ByteCount = 0;
 130              		.loc 1 127 0
 131 0038 1A70     		strb	r2, [r3]
 132              	.L7:
 128:main.c        ****     }
 129:main.c        ****     ByteCounter_ReadStatusRegister();
 133              		.loc 1 129 0
 134 003a FFF7FEFF 		bl	ByteCounter_ReadStatusRegister
 135              	.LVL8:
 136 003e 08BD     		pop	{r3, pc}
 137              	.L12:
 138              		.align	2
 139              	.L11:
 140 0040 00000000 		.word	.LANCHOR0
 141 0044 00000000 		.word	ReceivedBuffer
 142 0048 00000000 		.word	Command_Packet
 143              		.cfi_endproc
 144              	.LFE72:
 145              		.size	CommandReceived, .-CommandReceived
 146              		.section	.text.LEDOffInterrupt,"ax",%progbits
 147              		.align	2
 148              		.global	LEDOffInterrupt
 149              		.thumb
 150              		.thumb_func
 151              		.type	LEDOffInterrupt, %function
 152              	LEDOffInterrupt:
 153              	.LFB74:
 130:main.c        **** }
ARM GAS  C:\Users\dshen\AppData\Local\Temp\ccgsGtVn.s 			page 6


 131:main.c        **** 
 132:main.c        **** 
 133:main.c        **** /** Set the LED to turn on for *time* milliseconds at *pwmMag* intensity*/
 134:main.c        **** void setLED(int pwmMag, int time) {
 135:main.c        ****     LEDPWM_WriteCompare1(0);
 136:main.c        ****     LEDDuration_Stop();
 137:main.c        ****     LEDDuration_WritePeriod(time);
 138:main.c        ****     LEDPWM_WriteCompare1(pwmMag);
 139:main.c        ****     LEDDuration_WriteCounter(0);
 140:main.c        ****     LEDDuration_Start();
 141:main.c        **** }
 142:main.c        **** 
 143:main.c        **** 
 144:main.c        **** CY_ISR(LEDOffInterrupt) {
 154              		.loc 1 144 0
 155              		.cfi_startproc
 156              		@ args = 0, pretend = 0, frame = 0
 157              		@ frame_needed = 0, uses_anonymous_args = 0
 158 0000 08B5     		push	{r3, lr}
 159              		.cfi_def_cfa_offset 8
 160              		.cfi_offset 3, -8
 161              		.cfi_offset 14, -4
 145:main.c        ****     LEDPWM_WriteCompare1(0);
 162              		.loc 1 145 0
 163 0002 0020     		movs	r0, #0
 164 0004 FFF7FEFF 		bl	LEDPWM_WriteCompare1
 165              	.LVL9:
 146:main.c        ****     LEDDuration_ReadStatusRegister();
 166              		.loc 1 146 0
 167 0008 FFF7FEFF 		bl	LEDDuration_ReadStatusRegister
 168              	.LVL10:
 169 000c 08BD     		pop	{r3, pc}
 170              		.cfi_endproc
 171              	.LFE74:
 172              		.size	LEDOffInterrupt, .-LEDOffInterrupt
 173 000e 00BF     		.section	.text.TurnSpeakerOff,"ax",%progbits
 174              		.align	2
 175              		.global	TurnSpeakerOff
 176              		.thumb
 177              		.thumb_func
 178              		.type	TurnSpeakerOff, %function
 179              	TurnSpeakerOff:
 180              	.LFB76:
 147:main.c        **** }
 148:main.c        **** 
 149:main.c        **** 
 150:main.c        **** 
 151:main.c        **** /** Play a note for *duration* milliseconds. */
 152:main.c        **** void playNote(float frequency, float duration) {
 153:main.c        ****     SpeakerTimer_Stop();
 154:main.c        ****     SpeakerTimer_WritePeriod((int) duration);
 155:main.c        ****     SpeakerClockConverter_WritePeriod((int) (1000000 / frequency));
 156:main.c        ****     // Set appropriate PWM frequency.
 157:main.c        ****     SpeakerTimer_WriteCounter(0);
 158:main.c        ****     SpeakerPWM_WriteCompare1(128);
 159:main.c        ****     SpeakerTimer_Start();
 160:main.c        **** }
ARM GAS  C:\Users\dshen\AppData\Local\Temp\ccgsGtVn.s 			page 7


 161:main.c        **** 
 162:main.c        **** 
 163:main.c        **** CY_ISR(TurnSpeakerOff) {
 181              		.loc 1 163 0
 182              		.cfi_startproc
 183              		@ args = 0, pretend = 0, frame = 0
 184              		@ frame_needed = 0, uses_anonymous_args = 0
 185 0000 08B5     		push	{r3, lr}
 186              		.cfi_def_cfa_offset 8
 187              		.cfi_offset 3, -8
 188              		.cfi_offset 14, -4
 164:main.c        ****     SpeakerPWM_WriteCompare1(0);
 189              		.loc 1 164 0
 190 0002 0020     		movs	r0, #0
 191 0004 FFF7FEFF 		bl	SpeakerPWM_WriteCompare1
 192              	.LVL11:
 165:main.c        ****     SpeakerTimer_ReadStatusRegister();
 193              		.loc 1 165 0
 194 0008 FFF7FEFF 		bl	SpeakerTimer_ReadStatusRegister
 195              	.LVL12:
 196 000c 08BD     		pop	{r3, pc}
 197              		.cfi_endproc
 198              	.LFE76:
 199              		.size	TurnSpeakerOff, .-TurnSpeakerOff
 200              		.global	__aeabi_i2d
 201              		.global	__aeabi_dmul
 202              		.global	__aeabi_ddiv
 203              		.global	__aeabi_d2uiz
 204 000e 00BF     		.section	.text.tempoToCycles,"ax",%progbits
 205              		.align	2
 206              		.global	tempoToCycles
 207              		.thumb
 208              		.thumb_func
 209              		.type	tempoToCycles, %function
 210              	tempoToCycles:
 211              	.LFB70:
  76:main.c        ****     clockrate = (float) clockrate;
 212              		.loc 1 76 0
 213              		.cfi_startproc
 214              		@ args = 0, pretend = 0, frame = 0
 215              		@ frame_needed = 0, uses_anonymous_args = 0
 216              	.LVL13:
 217 0000 70B5     		push	{r4, r5, r6, lr}
 218              		.cfi_def_cfa_offset 16
 219              		.cfi_offset 4, -16
 220              		.cfi_offset 5, -12
 221              		.cfi_offset 6, -8
 222              		.cfi_offset 14, -4
 223 0002 0E46     		mov	r6, r1
 224              	.LVL14:
  79:main.c        **** }
 225              		.loc 1 79 0
 226 0004 FFF7FEFF 		bl	__aeabi_i2d
 227              	.LVL15:
 228 0008 0022     		movs	r2, #0
 229 000a 094B     		ldr	r3, .L19
 230 000c FFF7FEFF 		bl	__aeabi_dmul
ARM GAS  C:\Users\dshen\AppData\Local\Temp\ccgsGtVn.s 			page 8


 231              	.LVL16:
 232 0010 0446     		mov	r4, r0
 233 0012 0D46     		mov	r5, r1
 234 0014 3046     		mov	r0, r6
 235 0016 FFF7FEFF 		bl	__aeabi_i2d
 236              	.LVL17:
 237 001a 0246     		mov	r2, r0
 238 001c 0B46     		mov	r3, r1
 239 001e 2046     		mov	r0, r4
 240 0020 2946     		mov	r1, r5
 241 0022 FFF7FEFF 		bl	__aeabi_ddiv
 242              	.LVL18:
 243 0026 FFF7FEFF 		bl	__aeabi_d2uiz
 244              	.LVL19:
  80:main.c        **** 
 245              		.loc 1 80 0
 246 002a 80B2     		uxth	r0, r0
 247 002c 70BD     		pop	{r4, r5, r6, pc}
 248              	.LVL20:
 249              	.L20:
 250 002e 00BF     		.align	2
 251              	.L19:
 252 0030 00004E40 		.word	1078853632
 253              		.cfi_endproc
 254              	.LFE70:
 255              		.size	tempoToCycles, .-tempoToCycles
 256              		.section	.text.setLED,"ax",%progbits
 257              		.align	2
 258              		.global	setLED
 259              		.thumb
 260              		.thumb_func
 261              		.type	setLED, %function
 262              	setLED:
 263              	.LFB73:
 134:main.c        ****     LEDPWM_WriteCompare1(0);
 264              		.loc 1 134 0
 265              		.cfi_startproc
 266              		@ args = 0, pretend = 0, frame = 0
 267              		@ frame_needed = 0, uses_anonymous_args = 0
 268              	.LVL21:
 269 0000 38B5     		push	{r3, r4, r5, lr}
 270              		.cfi_def_cfa_offset 16
 271              		.cfi_offset 3, -16
 272              		.cfi_offset 4, -12
 273              		.cfi_offset 5, -8
 274              		.cfi_offset 14, -4
 275 0002 0446     		mov	r4, r0
 276 0004 0D46     		mov	r5, r1
 135:main.c        ****     LEDDuration_Stop();
 277              		.loc 1 135 0
 278 0006 0020     		movs	r0, #0
 279              	.LVL22:
 280 0008 FFF7FEFF 		bl	LEDPWM_WriteCompare1
 281              	.LVL23:
 136:main.c        ****     LEDDuration_WritePeriod(time);
 282              		.loc 1 136 0
 283 000c FFF7FEFF 		bl	LEDDuration_Stop
ARM GAS  C:\Users\dshen\AppData\Local\Temp\ccgsGtVn.s 			page 9


 284              	.LVL24:
 137:main.c        ****     LEDPWM_WriteCompare1(pwmMag);
 285              		.loc 1 137 0
 286 0010 A8B2     		uxth	r0, r5
 287 0012 FFF7FEFF 		bl	LEDDuration_WritePeriod
 288              	.LVL25:
 138:main.c        ****     LEDDuration_WriteCounter(0);
 289              		.loc 1 138 0
 290 0016 E0B2     		uxtb	r0, r4
 291 0018 FFF7FEFF 		bl	LEDPWM_WriteCompare1
 292              	.LVL26:
 139:main.c        ****     LEDDuration_Start();
 293              		.loc 1 139 0
 294 001c 0020     		movs	r0, #0
 295 001e FFF7FEFF 		bl	LEDDuration_WriteCounter
 296              	.LVL27:
 140:main.c        **** }
 297              		.loc 1 140 0
 298 0022 FFF7FEFF 		bl	LEDDuration_Start
 299              	.LVL28:
 300 0026 38BD     		pop	{r3, r4, r5, pc}
 301              		.cfi_endproc
 302              	.LFE73:
 303              		.size	setLED, .-setLED
 304              		.global	__aeabi_f2iz
 305              		.global	__aeabi_fdiv
 306              		.section	.text.playNote,"ax",%progbits
 307              		.align	2
 308              		.global	playNote
 309              		.thumb
 310              		.thumb_func
 311              		.type	playNote, %function
 312              	playNote:
 313              	.LFB75:
 152:main.c        ****     SpeakerTimer_Stop();
 314              		.loc 1 152 0
 315              		.cfi_startproc
 316              		@ args = 0, pretend = 0, frame = 0
 317              		@ frame_needed = 0, uses_anonymous_args = 0
 318              	.LVL29:
 319 0000 38B5     		push	{r3, r4, r5, lr}
 320              		.cfi_def_cfa_offset 16
 321              		.cfi_offset 3, -16
 322              		.cfi_offset 4, -12
 323              		.cfi_offset 5, -8
 324              		.cfi_offset 14, -4
 325 0002 0446     		mov	r4, r0
 326 0004 0D46     		mov	r5, r1
 153:main.c        ****     SpeakerTimer_WritePeriod((int) duration);
 327              		.loc 1 153 0
 328 0006 FFF7FEFF 		bl	SpeakerTimer_Stop
 329              	.LVL30:
 154:main.c        ****     SpeakerClockConverter_WritePeriod((int) (1000000 / frequency));
 330              		.loc 1 154 0
 331 000a 2846     		mov	r0, r5
 332 000c FFF7FEFF 		bl	__aeabi_f2iz
 333              	.LVL31:
ARM GAS  C:\Users\dshen\AppData\Local\Temp\ccgsGtVn.s 			page 10


 334 0010 80B2     		uxth	r0, r0
 335 0012 FFF7FEFF 		bl	SpeakerTimer_WritePeriod
 336              	.LVL32:
 155:main.c        ****     // Set appropriate PWM frequency.
 337              		.loc 1 155 0
 338 0016 2146     		mov	r1, r4
 339 0018 0848     		ldr	r0, .L25
 340 001a FFF7FEFF 		bl	__aeabi_fdiv
 341              	.LVL33:
 342 001e FFF7FEFF 		bl	__aeabi_f2iz
 343              	.LVL34:
 344 0022 80B2     		uxth	r0, r0
 345 0024 FFF7FEFF 		bl	SpeakerClockConverter_WritePeriod
 346              	.LVL35:
 157:main.c        ****     SpeakerPWM_WriteCompare1(128);
 347              		.loc 1 157 0
 348 0028 0020     		movs	r0, #0
 349 002a FFF7FEFF 		bl	SpeakerTimer_WriteCounter
 350              	.LVL36:
 158:main.c        ****     SpeakerTimer_Start();
 351              		.loc 1 158 0
 352 002e 8020     		movs	r0, #128
 353 0030 FFF7FEFF 		bl	SpeakerPWM_WriteCompare1
 354              	.LVL37:
 159:main.c        **** }
 355              		.loc 1 159 0
 356 0034 FFF7FEFF 		bl	SpeakerTimer_Start
 357              	.LVL38:
 358 0038 38BD     		pop	{r3, r4, r5, pc}
 359              	.LVL39:
 360              	.L26:
 361 003a 00BF     		.align	2
 362              	.L25:
 363 003c 00247449 		.word	1232348160
 364              		.cfi_endproc
 365              	.LFE75:
 366              		.size	playNote, .-playNote
 367              		.global	__aeabi_ui2f
 368              		.global	__aeabi_f2d
 369              		.global	__aeabi_d2iz
 370              		.global	__aeabi_i2f
 371              		.section	.text.NoteInterrupt,"ax",%progbits
 372              		.align	2
 373              		.global	NoteInterrupt
 374              		.thumb
 375              		.thumb_func
 376              		.type	NoteInterrupt, %function
 377              	NoteInterrupt:
 378              	.LFB77:
 166:main.c        **** }
 167:main.c        **** 
 168:main.c        **** 
 169:main.c        **** /** Interrupt once the timer loops and we need to write a note. */
 170:main.c        **** CY_ISR(NoteInterrupt) {
 379              		.loc 1 170 0
 380              		.cfi_startproc
 381              		@ args = 0, pretend = 0, frame = 0
ARM GAS  C:\Users\dshen\AppData\Local\Temp\ccgsGtVn.s 			page 11


 382              		@ frame_needed = 0, uses_anonymous_args = 0
 383 0000 38B5     		push	{r3, r4, r5, lr}
 384              		.cfi_def_cfa_offset 16
 385              		.cfi_offset 3, -16
 386              		.cfi_offset 4, -12
 387              		.cfi_offset 5, -8
 388              		.cfi_offset 14, -4
 171:main.c        ****     LEDPWM_WriteCompare1(0);
 389              		.loc 1 171 0
 390 0002 0020     		movs	r0, #0
 391 0004 FFF7FEFF 		bl	LEDPWM_WriteCompare1
 392              	.LVL40:
 172:main.c        ****     // If no notes to send, exit
 173:main.c        ****     if (!noteReady) {
 393              		.loc 1 173 0
 394 0008 1F4B     		ldr	r3, .L31+8
 395 000a DB78     		ldrb	r3, [r3, #3]	@ zero_extendqisi2
 396 000c 33B9     		cbnz	r3, .L28
 174:main.c        ****         // Tun the LED on low for 50 milliseconds.
 175:main.c        ****         setLED(5, 5);
 397              		.loc 1 175 0
 398 000e 0521     		movs	r1, #5
 399 0010 0846     		mov	r0, r1
 400 0012 FFF7FEFF 		bl	setLED
 401              	.LVL41:
 176:main.c        ****         NoteTimer_ReadStatusRegister();
 402              		.loc 1 176 0
 403 0016 FFF7FEFF 		bl	NoteTimer_ReadStatusRegister
 404              	.LVL42:
 177:main.c        ****         return;
 405              		.loc 1 177 0
 406 001a 38BD     		pop	{r3, r4, r5, pc}
 407              	.L28:
 178:main.c        ****     }
 179:main.c        ****     // Do some note writing here.
 180:main.c        ****     ConvertToByte.number = currentNote;
 408              		.loc 1 180 0
 409 001c 1A4C     		ldr	r4, .L31+8
 410 001e A388     		ldrh	r3, [r4, #4]
 411 0020 1A4A     		ldr	r2, .L31+12
 412 0022 1380     		strh	r3, [r2]	@ movhi
 181:main.c        ****     // Converting U16 to U8    
 182:main.c        ****     TransmitBuffer[0] = 3;
 413              		.loc 1 182 0
 414 0024 1A48     		ldr	r0, .L31+16
 415 0026 0321     		movs	r1, #3
 416 0028 0170     		strb	r1, [r0]
 183:main.c        ****     // Labview expects big endian but PSOC stores in little endian.
 184:main.c        ****     TransmitBuffer[1] = ConvertToByte.data[1];
 417              		.loc 1 184 0
 418 002a C3F30722 		ubfx	r2, r3, #8, #8
 419 002e 4270     		strb	r2, [r0, #1]
 185:main.c        ****     TransmitBuffer[2] = ConvertToByte.data[0];
 420              		.loc 1 185 0
 421 0030 8370     		strb	r3, [r0, #2]
 186:main.c        ****     LabVIEW_UART_PutArray(TransmitBuffer, 3);
 422              		.loc 1 186 0
ARM GAS  C:\Users\dshen\AppData\Local\Temp\ccgsGtVn.s 			page 12


 423 0032 FFF7FEFF 		bl	LabVIEW_UART_PutArray
 424              	.LVL43:
 187:main.c        ****     
 188:main.c        ****     // Calculate the period in ms for the given tempo. Make this a little
 189:main.c        ****     // shorter than the actual time so we can see differences in the LED.
 190:main.c        ****     int period = (int) 60000.0 / (float) tempo * 0.8;
 425              		.loc 1 190 0
 426 0036 174B     		ldr	r3, .L31+20
 427 0038 1878     		ldrb	r0, [r3]	@ zero_extendqisi2
 428 003a FFF7FEFF 		bl	__aeabi_ui2f
 429              	.LVL44:
 430 003e 0146     		mov	r1, r0
 431 0040 1548     		ldr	r0, .L31+24
 432 0042 FFF7FEFF 		bl	__aeabi_fdiv
 433              	.LVL45:
 434 0046 FFF7FEFF 		bl	__aeabi_f2d
 435              	.LVL46:
 436 004a 0DA3     		adr	r3, .L31
 437 004c D3E90023 		ldrd	r2, [r3]
 438 0050 FFF7FEFF 		bl	__aeabi_dmul
 439              	.LVL47:
 440 0054 FFF7FEFF 		bl	__aeabi_d2iz
 441              	.LVL48:
 442 0058 0546     		mov	r5, r0
 443              	.LVL49:
 191:main.c        ****     
 192:main.c        ****     // Turn the LED on high for 0.5 second.
 193:main.c        ****     setLED(255, period);
 444              		.loc 1 193 0
 445 005a 0146     		mov	r1, r0
 446 005c FF20     		movs	r0, #255
 447              	.LVL50:
 448 005e FFF7FEFF 		bl	setLED
 449              	.LVL51:
 194:main.c        ****     // Play the note.
 195:main.c        ****     playNote(currentNote, period);
 450              		.loc 1 195 0
 451 0062 2846     		mov	r0, r5
 452 0064 FFF7FEFF 		bl	__aeabi_i2f
 453              	.LVL52:
 454 0068 0546     		mov	r5, r0
 455              	.LVL53:
 456 006a A088     		ldrh	r0, [r4, #4]
 457 006c FFF7FEFF 		bl	__aeabi_ui2f
 458              	.LVL54:
 459 0070 2946     		mov	r1, r5
 460 0072 FFF7FEFF 		bl	playNote
 461              	.LVL55:
 196:main.c        ****     
 197:main.c        ****     // Note has been consumed.
 198:main.c        ****     noteReady = 0;
 462              		.loc 1 198 0
 463 0076 0023     		movs	r3, #0
 464 0078 E370     		strb	r3, [r4, #3]
 199:main.c        ****     NoteTimer_ReadStatusRegister();
 465              		.loc 1 199 0
 466 007a FFF7FEFF 		bl	NoteTimer_ReadStatusRegister
ARM GAS  C:\Users\dshen\AppData\Local\Temp\ccgsGtVn.s 			page 13


 467              	.LVL56:
 468 007e 38BD     		pop	{r3, r4, r5, pc}
 469              	.L32:
 470              		.align	3
 471              	.L31:
 472 0080 9A999999 		.word	-1717986918
 473 0084 9999E93F 		.word	1072273817
 474 0088 00000000 		.word	.LANCHOR0
 475 008c 00000000 		.word	ConvertToByte
 476 0090 00000000 		.word	TransmitBuffer
 477 0094 00000000 		.word	.LANCHOR1
 478 0098 00606A47 		.word	1198153728
 479              		.cfi_endproc
 480              	.LFE77:
 481              		.size	NoteInterrupt, .-NoteInterrupt
 482              		.section	.text.noteNumToFreq,"ax",%progbits
 483              		.align	2
 484              		.global	noteNumToFreq
 485              		.thumb
 486              		.thumb_func
 487              		.type	noteNumToFreq, %function
 488              	noteNumToFreq:
 489              	.LFB78:
 200:main.c        **** }
 201:main.c        **** 
 202:main.c        **** 
 203:main.c        **** /** Convert a note number to a frequency. */
 204:main.c        **** uint16 noteNumToFreq(int number) {
 490              		.loc 1 204 0
 491              		.cfi_startproc
 492              		@ args = 0, pretend = 0, frame = 0
 493              		@ frame_needed = 0, uses_anonymous_args = 0
 494              		@ link register save eliminated.
 495              	.LVL57:
 496              	.LBB5:
 205:main.c        ****     for (int i = 0; i < NUMNOTES; i++) {
 497              		.loc 1 205 0
 498 0000 0023     		movs	r3, #0
 499 0002 09E0     		b	.L34
 500              	.LVL58:
 501              	.L37:
 206:main.c        ****         if (noteNums[i] == number) {
 502              		.loc 1 206 0
 503 0004 064A     		ldr	r2, .L38
 504 0006 D25C     		ldrb	r2, [r2, r3]	@ zero_extendqisi2
 505 0008 8242     		cmp	r2, r0
 506 000a 04D1     		bne	.L35
 207:main.c        ****             return noteFreqs[i];
 507              		.loc 1 207 0
 508 000c 044A     		ldr	r2, .L38
 509 000e 02EB4303 		add	r3, r2, r3, lsl #1
 510              	.LVL59:
 511 0012 9889     		ldrh	r0, [r3, #12]
 512              	.LVL60:
 513 0014 7047     		bx	lr
 514              	.LVL61:
 515              	.L35:
ARM GAS  C:\Users\dshen\AppData\Local\Temp\ccgsGtVn.s 			page 14


 205:main.c        ****     for (int i = 0; i < NUMNOTES; i++) {
 516              		.loc 1 205 0 discriminator 2
 517 0016 0133     		adds	r3, r3, #1
 518              	.LVL62:
 519              	.L34:
 205:main.c        ****     for (int i = 0; i < NUMNOTES; i++) {
 520              		.loc 1 205 0 is_stmt 0 discriminator 1
 521 0018 082B     		cmp	r3, #8
 522 001a F3DD     		ble	.L37
 523              	.LBE5:
 208:main.c        ****         }
 209:main.c        ****     }
 210:main.c        ****     return 0;
 524              		.loc 1 210 0 is_stmt 1
 525 001c 0020     		movs	r0, #0
 526              	.LVL63:
 211:main.c        **** }
 527              		.loc 1 211 0
 528 001e 7047     		bx	lr
 529              	.L39:
 530              		.align	2
 531              	.L38:
 532 0020 00000000 		.word	.LANCHOR2
 533              		.cfi_endproc
 534              	.LFE78:
 535              		.size	noteNumToFreq, .-noteNumToFreq
 536              		.section	.text.main,"ax",%progbits
 537              		.align	2
 538              		.global	main
 539              		.thumb
 540              		.thumb_func
 541              		.type	main, %function
 542              	main:
 543              	.LFB79:
 212:main.c        **** 
 213:main.c        **** 
 214:main.c        **** int main(void) {
 544              		.loc 1 214 0
 545              		.cfi_startproc
 546              		@ args = 0, pretend = 0, frame = 0
 547              		@ frame_needed = 0, uses_anonymous_args = 0
 548 0000 10B5     		push	{r4, lr}
 549              		.cfi_def_cfa_offset 8
 550              		.cfi_offset 4, -8
 551              		.cfi_offset 14, -4
 552 0002 82B0     		sub	sp, sp, #8
 553              		.cfi_def_cfa_offset 16
 215:main.c        ****     CyGlobalIntEnable; /* Enable global interrupts. */
 554              		.loc 1 215 0
 555              		.syntax unified
 556              	@ 215 "main.c" 1
 557 0004 62B6     		CPSIE   i
 558              	@ 0 "" 2
 216:main.c        **** 
 217:main.c        ****     /* Place your initialization/startup code here (e.g. MyInst_Start()) */
 218:main.c        ****     /* Write 0 to the reset attr. */
 219:main.c        ****     UARTReset_Write(0);
ARM GAS  C:\Users\dshen\AppData\Local\Temp\ccgsGtVn.s 			page 15


 559              		.loc 1 219 0
 560              		.thumb
 561              		.syntax unified
 562 0006 0020     		movs	r0, #0
 563 0008 FFF7FEFF 		bl	UARTReset_Write
 564              	.LVL64:
 220:main.c        ****     ByteCountReset_Write(0);
 565              		.loc 1 220 0
 566 000c 0020     		movs	r0, #0
 567 000e FFF7FEFF 		bl	ByteCountReset_Write
 568              	.LVL65:
 221:main.c        ****     
 222:main.c        ****     LabVIEW_UART_Start();
 569              		.loc 1 222 0
 570 0012 FFF7FEFF 		bl	LabVIEW_UART_Start
 571              	.LVL66:
 223:main.c        ****     
 224:main.c        ****     ByteCounter_Start();
 572              		.loc 1 224 0
 573 0016 FFF7FEFF 		bl	ByteCounter_Start
 574              	.LVL67:
 225:main.c        ****     ByteCounter_Enable();
 575              		.loc 1 225 0
 576 001a FFF7FEFF 		bl	ByteCounter_Enable
 577              	.LVL68:
 226:main.c        ****     ByteCounter_SetInterruptMode(ByteCounter_STATUS_CMP_INT_EN_MASK);
 578              		.loc 1 226 0
 579 001e 0120     		movs	r0, #1
 580 0020 FFF7FEFF 		bl	ByteCounter_SetInterruptMode
 581              	.LVL69:
 227:main.c        ****     
 228:main.c        ****     NoteTimer_Start();
 582              		.loc 1 228 0
 583 0024 FFF7FEFF 		bl	NoteTimer_Start
 584              	.LVL70:
 229:main.c        ****     NoteInterrupt_Start();
 585              		.loc 1 229 0
 586 0028 FFF7FEFF 		bl	NoteInterrupt_Start
 587              	.LVL71:
 230:main.c        ****     NoteInterrupt_StartEx(NoteInterrupt);
 588              		.loc 1 230 0
 589 002c 3A48     		ldr	r0, .L49
 590 002e FFF7FEFF 		bl	NoteInterrupt_StartEx
 591              	.LVL72:
 231:main.c        ****     // Set the initial tempo.
 232:main.c        ****     NoteTimer_WritePeriod(tempoToCycles(clockRate, tempo));
 592              		.loc 1 232 0
 593 0032 3A4C     		ldr	r4, .L49+4
 594 0034 2178     		ldrb	r1, [r4]	@ zero_extendqisi2
 595 0036 6088     		ldrh	r0, [r4, #2]
 596 0038 FFF7FEFF 		bl	tempoToCycles
 597              	.LVL73:
 598 003c FFF7FEFF 		bl	NoteTimer_WritePeriod
 599              	.LVL74:
 233:main.c        ****     
 234:main.c        ****     ByteReceived_Start();
 600              		.loc 1 234 0
ARM GAS  C:\Users\dshen\AppData\Local\Temp\ccgsGtVn.s 			page 16


 601 0040 FFF7FEFF 		bl	ByteReceived_Start
 602              	.LVL75:
 235:main.c        ****     ByteReceived_StartEx(ByteReceived);
 603              		.loc 1 235 0
 604 0044 3648     		ldr	r0, .L49+8
 605 0046 FFF7FEFF 		bl	ByteReceived_StartEx
 606              	.LVL76:
 236:main.c        ****     ByteReceived_Enable();
 607              		.loc 1 236 0
 608 004a FFF7FEFF 		bl	ByteReceived_Enable
 609              	.LVL77:
 237:main.c        ****     
 238:main.c        ****     CommandReceived_Start();
 610              		.loc 1 238 0
 611 004e FFF7FEFF 		bl	CommandReceived_Start
 612              	.LVL78:
 239:main.c        ****     CommandReceived_StartEx(CommandReceived);
 613              		.loc 1 239 0
 614 0052 3448     		ldr	r0, .L49+12
 615 0054 FFF7FEFF 		bl	CommandReceived_StartEx
 616              	.LVL79:
 240:main.c        ****     CommandReceived_Enable();
 617              		.loc 1 240 0
 618 0058 FFF7FEFF 		bl	CommandReceived_Enable
 619              	.LVL80:
 241:main.c        ****     
 242:main.c        ****     LEDDuration_Start();
 620              		.loc 1 242 0
 621 005c FFF7FEFF 		bl	LEDDuration_Start
 622              	.LVL81:
 243:main.c        ****     
 244:main.c        ****     LEDOffInterrupt_Start();
 623              		.loc 1 244 0
 624 0060 FFF7FEFF 		bl	LEDOffInterrupt_Start
 625              	.LVL82:
 245:main.c        ****     LEDOffInterrupt_StartEx(LEDOffInterrupt);
 626              		.loc 1 245 0
 627 0064 3048     		ldr	r0, .L49+16
 628 0066 FFF7FEFF 		bl	LEDOffInterrupt_StartEx
 629              	.LVL83:
 246:main.c        ****     LEDPWM_Start();
 630              		.loc 1 246 0
 631 006a FFF7FEFF 		bl	LEDPWM_Start
 632              	.LVL84:
 247:main.c        ****     LEDPWM_WriteCompare1(0);
 633              		.loc 1 247 0
 634 006e 0020     		movs	r0, #0
 635 0070 FFF7FEFF 		bl	LEDPWM_WriteCompare1
 636              	.LVL85:
 248:main.c        ****     
 249:main.c        ****     SpeakerClockConverter_Start();
 637              		.loc 1 249 0
 638 0074 FFF7FEFF 		bl	SpeakerClockConverter_Start
 639              	.LVL86:
 250:main.c        ****     SpeakerTimer_Start();
 640              		.loc 1 250 0
 641 0078 FFF7FEFF 		bl	SpeakerTimer_Start
ARM GAS  C:\Users\dshen\AppData\Local\Temp\ccgsGtVn.s 			page 17


 642              	.LVL87:
 251:main.c        ****     TurnSpeakerOff_Start();
 643              		.loc 1 251 0
 644 007c FFF7FEFF 		bl	TurnSpeakerOff_Start
 645              	.LVL88:
 252:main.c        ****     TurnSpeakerOff_StartEx(TurnSpeakerOff);
 646              		.loc 1 252 0
 647 0080 2A48     		ldr	r0, .L49+20
 648 0082 FFF7FEFF 		bl	TurnSpeakerOff_StartEx
 649              	.LVL89:
 253:main.c        ****     SpeakerPWM_Start();
 650              		.loc 1 253 0
 651 0086 FFF7FEFF 		bl	SpeakerPWM_Start
 652              	.LVL90:
 254:main.c        ****     SpeakerPWM_WriteCompare1(0);
 653              		.loc 1 254 0
 654 008a 0020     		movs	r0, #0
 655 008c FFF7FEFF 		bl	SpeakerPWM_WriteCompare1
 656              	.LVL91:
 255:main.c        ****     
 256:main.c        ****     // Queue that store the notes to be played.
 257:main.c        ****     q_init(&noteQueue, sizeof(uint8), queueSize, FIFO, 1);
 657              		.loc 1 257 0
 658 0090 A288     		ldrh	r2, [r4, #4]
 659 0092 0121     		movs	r1, #1
 660 0094 0091     		str	r1, [sp]
 661 0096 0023     		movs	r3, #0
 662 0098 2548     		ldr	r0, .L49+24
 663 009a FFF7FEFF 		bl	q_init
 664              	.LVL92:
 665              	.L41:
 258:main.c        ****     
 259:main.c        ****     // Enqueue some notes as a test.
 260:main.c        ****     /**
 261:main.c        ****     q_push(&noteQueue, &g4);
 262:main.c        ****     q_push(&noteQueue, &c5);
 263:main.c        ****     q_push(&noteQueue, &g4);
 264:main.c        ****     q_push(&noteQueue, &a5);
 265:main.c        ****     
 266:main.c        ****     q_push(&noteQueue, &e4);
 267:main.c        ****     q_push(&noteQueue, &e4);
 268:main.c        ****     q_push(&noteQueue, &a5);
 269:main.c        ****     q_push(&noteQueue, &g4);
 270:main.c        ****     q_push(&noteQueue, &f4);
 271:main.c        ****     q_push(&noteQueue, &g4);
 272:main.c        ****     q_push(&noteQueue, &c5);
 273:main.c        ****     */
 274:main.c        ****     
 275:main.c        ****     for(;;)
 276:main.c        ****     {
 277:main.c        ****         if (CommandReady) {
 666              		.loc 1 277 0
 667 009e 254B     		ldr	r3, .L49+28
 668 00a0 9B78     		ldrb	r3, [r3, #2]	@ zero_extendqisi2
 669 00a2 23B3     		cbz	r3, .L42
 278:main.c        ****             switch (Command_Packet.command) {
 670              		.loc 1 278 0
ARM GAS  C:\Users\dshen\AppData\Local\Temp\ccgsGtVn.s 			page 18


 671 00a4 244B     		ldr	r3, .L49+32
 672 00a6 5B78     		ldrb	r3, [r3, #1]	@ zero_extendqisi2
 673 00a8 012B     		cmp	r3, #1
 674 00aa 02D0     		beq	.L43
 675 00ac 022B     		cmp	r3, #2
 676 00ae 15D0     		beq	.L47
 677 00b0 1DE0     		b	.L42
 678              	.L43:
 279:main.c        ****                 // Tempo payload:
 280:main.c        ****                 case 1:
 281:main.c        ****                     // Reset the tempo by changing the period of the NoteTimer
 282:main.c        ****                     tempo = Command_Packet.buffer[0];
 679              		.loc 1 282 0
 680 00b2 214B     		ldr	r3, .L49+32
 681 00b4 9978     		ldrb	r1, [r3, #2]	@ zero_extendqisi2
 682 00b6 194B     		ldr	r3, .L49+4
 683 00b8 1970     		strb	r1, [r3]
 283:main.c        ****                     NoteTimer_WritePeriod(tempoToCycles(clockRate, tempo));
 684              		.loc 1 283 0
 685 00ba 5888     		ldrh	r0, [r3, #2]
 686 00bc FFF7FEFF 		bl	tempoToCycles
 687              	.LVL93:
 688 00c0 FFF7FEFF 		bl	NoteTimer_WritePeriod
 689              	.LVL94:
 284:main.c        ****                     CommandReady = 0;
 690              		.loc 1 284 0
 691 00c4 0022     		movs	r2, #0
 692 00c6 1B4B     		ldr	r3, .L49+28
 693 00c8 9A70     		strb	r2, [r3, #2]
 285:main.c        ****                     break;
 694              		.loc 1 285 0
 695 00ca 10E0     		b	.L42
 696              	.LVL95:
 697              	.L45:
 698              	.LBB6:
 286:main.c        ****                 // Note Payload
 287:main.c        ****                 case 2:
 288:main.c        ****                     // Enqueue all the notes into the buffer.
 289:main.c        ****                     for (int i = 0; i < Command_Packet.packet_size - 2; i++) {
 290:main.c        ****                         q_push(&noteQueue, &Command_Packet.buffer[i]);
 699              		.loc 1 290 0 discriminator 3
 700 00cc 1A49     		ldr	r1, .L49+32
 701 00ce 2144     		add	r1, r1, r4
 702 00d0 0231     		adds	r1, r1, #2
 703 00d2 1748     		ldr	r0, .L49+24
 704 00d4 FFF7FEFF 		bl	q_push
 705              	.LVL96:
 289:main.c        ****                         q_push(&noteQueue, &Command_Packet.buffer[i]);
 706              		.loc 1 289 0 discriminator 3
 707 00d8 0134     		adds	r4, r4, #1
 708              	.LVL97:
 709 00da 00E0     		b	.L44
 710              	.LVL98:
 711              	.L47:
 712              	.LBE6:
 278:main.c        ****                 // Tempo payload:
 713              		.loc 1 278 0
ARM GAS  C:\Users\dshen\AppData\Local\Temp\ccgsGtVn.s 			page 19


 714 00dc 0024     		movs	r4, #0
 715              	.L44:
 716              	.LVL99:
 717              	.LBB7:
 289:main.c        ****                         q_push(&noteQueue, &Command_Packet.buffer[i]);
 718              		.loc 1 289 0 discriminator 1
 719 00de 164B     		ldr	r3, .L49+32
 720 00e0 1B78     		ldrb	r3, [r3]	@ zero_extendqisi2
 721 00e2 023B     		subs	r3, r3, #2
 722 00e4 9C42     		cmp	r4, r3
 723 00e6 F1DB     		blt	.L45
 724              	.LBE7:
 291:main.c        ****                     }
 292:main.c        ****                     CommandReady = 0;
 725              		.loc 1 292 0
 726 00e8 0022     		movs	r2, #0
 727 00ea 124B     		ldr	r3, .L49+28
 728 00ec 9A70     		strb	r2, [r3, #2]
 729              	.LVL100:
 730              	.L42:
 731              	.LBB8:
 732              	.LBB9:
 733              		.file 2 "cQueue.h"
   1:cQueue.h      **** /*!\file cQueue.h
   2:cQueue.h      **** ** \author SMFSW
   3:cQueue.h      **** ** \copyright BSD 3-Clause License (c) 2017-2019, SMFSW
   4:cQueue.h      **** ** \brief Queue handling library (designed in c on STM32)
   5:cQueue.h      **** ** \details Queue handling library (designed in c on STM32)
   6:cQueue.h      **** **/
   7:cQueue.h      **** /****************************************************************/
   8:cQueue.h      **** #ifndef __CQUEUE_H
   9:cQueue.h      **** 	#define __CQUEUE_H
  10:cQueue.h      **** 
  11:cQueue.h      **** #ifdef __cplusplus
  12:cQueue.h      **** extern "C" {
  13:cQueue.h      **** #endif
  14:cQueue.h      **** 
  15:cQueue.h      **** #include <inttypes.h>
  16:cQueue.h      **** #include <stdbool.h>
  17:cQueue.h      **** /****************************************************************/
  18:cQueue.h      **** 
  19:cQueue.h      **** 
  20:cQueue.h      **** #define QUEUE_INITIALIZED	0x5AA5							//!< Queue initialized control value
  21:cQueue.h      **** 
  22:cQueue.h      **** #define q_init_def(q, sz)	q_init(q, sz, 20, FIFO, false)	//!< Some kind of average default for queu
  23:cQueue.h      **** 
  24:cQueue.h      **** #define q_pull				q_pop							//!< \deprecated q_pull was already used in cQueue lib, alias is made
  25:cQueue.h      **** #define q_nbRecs			q_getCount						//!< \deprecated q_nbRecs was already used in cQueue lib, alias 
  26:cQueue.h      **** #define q_clean				q_flush							//!< \deprecated q_clean was already used in cQueue lib, alias is 
  27:cQueue.h      **** 
  28:cQueue.h      **** 
  29:cQueue.h      **** /*!\enum enumQueueType
  30:cQueue.h      **** ** \brief Queue behavior enumeration (FIFO, LIFO)
  31:cQueue.h      **** **/
  32:cQueue.h      **** typedef enum enumQueueType {
  33:cQueue.h      **** 	FIFO = 0,	//!< First In First Out behavior
  34:cQueue.h      **** 	LIFO = 1	//!< Last In First Out behavior
ARM GAS  C:\Users\dshen\AppData\Local\Temp\ccgsGtVn.s 			page 20


  35:cQueue.h      **** } QueueType;
  36:cQueue.h      **** 
  37:cQueue.h      **** 
  38:cQueue.h      **** /*!\struct Queue_t
  39:cQueue.h      **** ** \brief Queue type structure holding all variables to handle the queue
  40:cQueue.h      **** **/
  41:cQueue.h      **** typedef struct Queue_t {
  42:cQueue.h      **** 	QueueType	impl;		//!< Queue implementation: FIFO LIFO
  43:cQueue.h      **** 	bool		ovw;		//!< Overwrite previous records when queue is full allowed
  44:cQueue.h      **** 	uint16_t	rec_nb;		//!< number of records in the queue
  45:cQueue.h      **** 	uint16_t	rec_sz;		//!< Size of a record
  46:cQueue.h      **** 	uint32_t	queue_sz;	//!< Size of the full queue
  47:cQueue.h      **** 	uint8_t *	queue;		//!< Queue start pointer (when allocated)
  48:cQueue.h      **** 
  49:cQueue.h      **** 	uint16_t	in;			//!< number of records pushed into the queue
  50:cQueue.h      **** 	uint16_t	out;		//!< number of records pulled from the queue (only for FIFO)
  51:cQueue.h      **** 	uint16_t	cnt;		//!< number of records not retrieved from the queue
  52:cQueue.h      **** 	uint16_t	init;		//!< set to QUEUE_INITIALIZED after successful init of the queue and reset when ki
  53:cQueue.h      **** } Queue_t;
  54:cQueue.h      **** 
  55:cQueue.h      **** 
  56:cQueue.h      **** /*!	\brief Queue initialization
  57:cQueue.h      **** **	\param [in,out] q - pointer of queue to handle
  58:cQueue.h      **** **	\param [in] size_rec - size of a record in the queue
  59:cQueue.h      **** **	\param [in] nb_recs - number of records in the queue
  60:cQueue.h      **** **	\param [in] type - Queue implementation type: FIFO, LIFO
  61:cQueue.h      **** **	\param [in] overwrite - Overwrite previous records when queue is full
  62:cQueue.h      **** **	\return NULL when allocation not possible, Queue tab address when successful
  63:cQueue.h      **** **/
  64:cQueue.h      **** void * __attribute__((nonnull)) q_init(Queue_t * const q, const uint16_t size_rec, const uint16_t n
  65:cQueue.h      **** 
  66:cQueue.h      **** /*!	\brief Queue destructor: release dynamically allocated queue
  67:cQueue.h      **** **	\param [in,out] q - pointer of queue to handle
  68:cQueue.h      **** **/
  69:cQueue.h      **** void __attribute__((nonnull)) q_kill(Queue_t * const q);
  70:cQueue.h      **** 
  71:cQueue.h      **** /*!	\brief Flush queue, restarting from empty queue
  72:cQueue.h      **** **	\param [in,out] q - pointer of queue to handle
  73:cQueue.h      **** **/
  74:cQueue.h      **** void __attribute__((nonnull)) q_flush(Queue_t * const q);
  75:cQueue.h      **** 
  76:cQueue.h      **** /*!	\brief get initialization state of the queue
  77:cQueue.h      **** **	\param [in] q - pointer of queue to handle
  78:cQueue.h      **** **	\return Queue initialization status
  79:cQueue.h      **** **	\retval true if queue is allocated
  80:cQueue.h      **** **	\retval false is queue is not allocated
  81:cQueue.h      **** **/
  82:cQueue.h      **** inline bool __attribute__((nonnull, always_inline)) q_isInitialized(const Queue_t * const q) {
  83:cQueue.h      **** 	return (q->init == QUEUE_INITIALIZED) ? true : false; }
  84:cQueue.h      **** 
  85:cQueue.h      **** /*!	\brief get emptiness state of the queue
  86:cQueue.h      **** **	\param [in] q - pointer of queue to handle
  87:cQueue.h      **** **	\return Queue emptiness status
  88:cQueue.h      **** **	\retval true if queue is empty
  89:cQueue.h      **** **	\retval false is not empty
  90:cQueue.h      **** **/
  91:cQueue.h      **** inline bool __attribute__((nonnull, always_inline)) q_isEmpty(const Queue_t * const q) {
ARM GAS  C:\Users\dshen\AppData\Local\Temp\ccgsGtVn.s 			page 21


  92:cQueue.h      **** 	return (!q->cnt) ? true : false; }
 734              		.loc 2 92 0
 735 00ee 104B     		ldr	r3, .L49+24
 736 00f0 9B8A     		ldrh	r3, [r3, #20]
 737              	.LVL101:
 738              	.LBE9:
 739              	.LBE8:
 293:main.c        ****                     break;
 294:main.c        ****                 default:
 295:main.c        ****                     break;
 296:main.c        ****             }
 297:main.c        ****         }
 298:main.c        ****         if (!q_isEmpty(&noteQueue) && !noteReady) {
 740              		.loc 1 298 0
 741 00f2 002B     		cmp	r3, #0
 742 00f4 D3D0     		beq	.L41
 743              		.loc 1 298 0 is_stmt 0 discriminator 1
 744 00f6 0F4B     		ldr	r3, .L49+28
 745 00f8 DB78     		ldrb	r3, [r3, #3]	@ zero_extendqisi2
 746 00fa 002B     		cmp	r3, #0
 747 00fc CFD1     		bne	.L41
 299:main.c        ****             q_pop(&noteQueue, &currentNote);
 748              		.loc 1 299 0 is_stmt 1
 749 00fe 0D4C     		ldr	r4, .L49+28
 750 0100 211D     		adds	r1, r4, #4
 751 0102 0B48     		ldr	r0, .L49+24
 752 0104 FFF7FEFF 		bl	q_pop
 753              	.LVL102:
 300:main.c        ****             currentNote = noteNumToFreq(currentNote);
 754              		.loc 1 300 0
 755 0108 A088     		ldrh	r0, [r4, #4]
 756 010a FFF7FEFF 		bl	noteNumToFreq
 757              	.LVL103:
 758 010e A080     		strh	r0, [r4, #4]	@ movhi
 301:main.c        ****             noteReady = 1;
 759              		.loc 1 301 0
 760 0110 0123     		movs	r3, #1
 761 0112 E370     		strb	r3, [r4, #3]
 762 0114 C3E7     		b	.L41
 763              	.L50:
 764 0116 00BF     		.align	2
 765              	.L49:
 766 0118 00000000 		.word	NoteInterrupt
 767 011c 00000000 		.word	.LANCHOR1
 768 0120 00000000 		.word	ByteReceived
 769 0124 00000000 		.word	CommandReceived
 770 0128 00000000 		.word	LEDOffInterrupt
 771 012c 00000000 		.word	TurnSpeakerOff
 772 0130 00000000 		.word	noteQueue
 773 0134 00000000 		.word	.LANCHOR0
 774 0138 00000000 		.word	Command_Packet
 775              		.cfi_endproc
 776              	.LFE79:
 777              		.size	main, .-main
 778              		.comm	Transmit_Packet,66,4
 779              		.comm	Command_Packet,66,4
 780              		.comm	ConvertToByte,2,4
ARM GAS  C:\Users\dshen\AppData\Local\Temp\ccgsGtVn.s 			page 22


 781              		.global	f5
 782              		.global	e5
 783              		.global	d5
 784              		.global	c5
 785              		.global	b5
 786              		.global	a5
 787              		.global	g4
 788              		.global	f4
 789              		.global	e4
 790              		.global	clockRate
 791              		.global	currentNote
 792              		.global	noteReady
 793              		.global	tempo
 794              		.global	queueSize
 795              		.comm	noteQueue,24,4
 796              		.comm	TransmitBuffer,3,4
 797              		.comm	ReceivedBuffer,66,4
 798              		.global	CommandReady
 799              		.global	firstbyte
 800              		.global	ByteCount
 801              		.section	.rodata
 802              		.align	2
 803              		.set	.LANCHOR2,. + 0
 804              		.type	noteNums, %object
 805              		.size	noteNums, 9
 806              	noteNums:
 807 0000 01       		.byte	1
 808 0001 02       		.byte	2
 809 0002 03       		.byte	3
 810 0003 04       		.byte	4
 811 0004 05       		.byte	5
 812 0005 06       		.byte	6
 813 0006 07       		.byte	7
 814 0007 08       		.byte	8
 815 0008 09       		.byte	9
 816 0009 000000   		.space	3
 817              		.type	noteFreqs, %object
 818              		.size	noteFreqs, 18
 819              	noteFreqs:
 820 000c 4A01     		.short	330
 821 000e 5D01     		.short	349
 822 0010 8801     		.short	392
 823 0012 B801     		.short	440
 824 0014 EE01     		.short	494
 825 0016 0B02     		.short	523
 826 0018 4B02     		.short	587
 827 001a 9302     		.short	659
 828 001c BA02     		.short	698
 829              		.data
 830              		.align	1
 831              		.set	.LANCHOR1,. + 0
 832              		.type	tempo, %object
 833              		.size	tempo, 1
 834              	tempo:
 835 0000 1E       		.byte	30
 836 0001 00       		.space	1
 837              		.type	clockRate, %object
ARM GAS  C:\Users\dshen\AppData\Local\Temp\ccgsGtVn.s 			page 23


 838              		.size	clockRate, 2
 839              	clockRate:
 840 0002 6400     		.short	100
 841              		.type	queueSize, %object
 842              		.size	queueSize, 2
 843              	queueSize:
 844 0004 3200     		.short	50
 845              		.type	f5, %object
 846              		.size	f5, 1
 847              	f5:
 848 0006 09       		.byte	9
 849              		.type	e5, %object
 850              		.size	e5, 1
 851              	e5:
 852 0007 08       		.byte	8
 853              		.type	d5, %object
 854              		.size	d5, 1
 855              	d5:
 856 0008 07       		.byte	7
 857              		.type	c5, %object
 858              		.size	c5, 1
 859              	c5:
 860 0009 06       		.byte	6
 861              		.type	b5, %object
 862              		.size	b5, 1
 863              	b5:
 864 000a 05       		.byte	5
 865              		.type	a5, %object
 866              		.size	a5, 1
 867              	a5:
 868 000b 04       		.byte	4
 869              		.type	g4, %object
 870              		.size	g4, 1
 871              	g4:
 872 000c 03       		.byte	3
 873              		.type	f4, %object
 874              		.size	f4, 1
 875              	f4:
 876 000d 02       		.byte	2
 877              		.type	e4, %object
 878              		.size	e4, 1
 879              	e4:
 880 000e 01       		.byte	1
 881              		.bss
 882              		.align	1
 883              		.set	.LANCHOR0,. + 0
 884              		.type	ByteCount, %object
 885              		.size	ByteCount, 1
 886              	ByteCount:
 887 0000 00       		.space	1
 888              		.type	firstbyte, %object
 889              		.size	firstbyte, 1
 890              	firstbyte:
 891 0001 00       		.space	1
 892              		.type	CommandReady, %object
 893              		.size	CommandReady, 1
 894              	CommandReady:
ARM GAS  C:\Users\dshen\AppData\Local\Temp\ccgsGtVn.s 			page 24


 895 0002 00       		.space	1
 896              		.type	noteReady, %object
 897              		.size	noteReady, 1
 898              	noteReady:
 899 0003 00       		.space	1
 900              		.type	currentNote, %object
 901              		.size	currentNote, 2
 902              	currentNote:
 903 0004 0000     		.space	2
 904              		.text
 905              	.Letext0:
 906              		.file 3 "c:\\program files (x86)\\cypress\\psoc creator\\4.3\\psoc creator\\import\\gnu\\arm\\5.4.
 907              		.file 4 "c:\\program files (x86)\\cypress\\psoc creator\\4.3\\psoc creator\\import\\gnu\\arm\\5.4.
 908              		.file 5 "Generated_Source\\PSoC5/cytypes.h"
 909              		.file 6 "Generated_Source\\PSoC5/core_cm3.h"
 910              		.file 7 "Generated_Source\\PSoC5/LabVIEW_UART.h"
 911              		.file 8 "Generated_Source\\PSoC5/ByteCounter.h"
 912              		.file 9 "Generated_Source\\PSoC5/LEDPWM.h"
 913              		.file 10 "Generated_Source\\PSoC5/LEDDuration.h"
 914              		.file 11 "Generated_Source\\PSoC5/SpeakerPWM.h"
 915              		.file 12 "Generated_Source\\PSoC5/SpeakerTimer.h"
 916              		.file 13 "Generated_Source\\PSoC5/SpeakerClockConverter.h"
 917              		.file 14 "Generated_Source\\PSoC5/NoteTimer.h"
 918              		.file 15 "Generated_Source\\PSoC5/UARTReset.h"
 919              		.file 16 "Generated_Source\\PSoC5/ByteCountReset.h"
 920              		.file 17 "Generated_Source\\PSoC5/NoteInterrupt.h"
 921              		.file 18 "Generated_Source\\PSoC5/ByteReceived.h"
 922              		.file 19 "Generated_Source\\PSoC5/CommandReceived.h"
 923              		.file 20 "Generated_Source\\PSoC5/LEDOffInterrupt.h"
 924              		.file 21 "Generated_Source\\PSoC5/TurnSpeakerOff.h"