ARM GAS  C:\Users\dshen\AppData\Local\Temp\cc4y2F8a.s 			page 1


   1              		.syntax unified
   2              		.cpu cortex-m3
   3              		.fpu softvfp
   4              		.eabi_attribute 20, 1
   5              		.eabi_attribute 21, 1
   6              		.eabi_attribute 23, 3
   7              		.eabi_attribute 24, 1
   8              		.eabi_attribute 25, 1
   9              		.eabi_attribute 26, 1
  10              		.eabi_attribute 30, 1
  11              		.eabi_attribute 34, 1
  12              		.eabi_attribute 18, 4
  13              		.thumb
  14              		.syntax unified
  15              		.file	"queue.c"
  16              		.text
  17              	.Ltext0:
  18              		.cfi_sections	.debug_frame
  19              		.section	.text.createQueue,"ax",%progbits
  20              		.align	2
  21              		.global	createQueue
  22              		.thumb
  23              		.thumb_func
  24              		.type	createQueue, %function
  25              	createQueue:
  26              	.LFB64:
  27              		.file 1 "queue.c"
   1:queue.c       **** /** Queue Library. Implementation taken from
   2:queue.c       ****  *  https://www.geeksforgeeks.org/queue-set-1introduction-and-array-implementation/
   3:queue.c       ****  */
   4:queue.c       **** #include "project.h"
   5:queue.c       **** #include <stdio.h> 
   6:queue.c       **** #include <stdlib.h> 
   7:queue.c       **** #include <limits.h> 
   8:queue.c       **** #include "queue.h"
   9:queue.c       **** 
  10:queue.c       **** // function to create a queue.
  11:queue.c       **** struct Queue* createQueue(unsigned capacity) 
  12:queue.c       **** { 
  28              		.loc 1 12 0
  29              		.cfi_startproc
  30              		@ args = 0, pretend = 0, frame = 0
  31              		@ frame_needed = 0, uses_anonymous_args = 0
  32              	.LVL0:
  33 0000 38B5     		push	{r3, r4, r5, lr}
  34              		.cfi_def_cfa_offset 16
  35              		.cfi_offset 3, -16
  36              		.cfi_offset 4, -12
  37              		.cfi_offset 5, -8
  38              		.cfi_offset 14, -4
  39 0002 0546     		mov	r5, r0
  13:queue.c       ****     struct Queue* queue = (struct Queue*) malloc(sizeof(struct Queue)); 
  40              		.loc 1 13 0
  41 0004 1420     		movs	r0, #20
  42              	.LVL1:
  43 0006 FFF7FEFF 		bl	malloc
  44              	.LVL2:
ARM GAS  C:\Users\dshen\AppData\Local\Temp\cc4y2F8a.s 			page 2


  45 000a 0446     		mov	r4, r0
  46              	.LVL3:
  14:queue.c       ****     queue->capacity = capacity; 
  47              		.loc 1 14 0
  48 000c C560     		str	r5, [r0, #12]
  15:queue.c       ****     queue-> size = 0;
  49              		.loc 1 15 0
  50 000e 0023     		movs	r3, #0
  51 0010 8360     		str	r3, [r0, #8]
  16:queue.c       ****     queue->front = 0;  
  52              		.loc 1 16 0
  53 0012 0360     		str	r3, [r0]
  17:queue.c       ****     queue->rear = capacity - 1;  // This is important, see the enqueue 
  54              		.loc 1 17 0
  55 0014 6B1E     		subs	r3, r5, #1
  56 0016 4360     		str	r3, [r0, #4]
  18:queue.c       ****     queue->array = (int*) malloc(queue->capacity * sizeof(int)); 
  57              		.loc 1 18 0
  58 0018 A800     		lsls	r0, r5, #2
  59              	.LVL4:
  60 001a FFF7FEFF 		bl	malloc
  61              	.LVL5:
  62 001e 2061     		str	r0, [r4, #16]
  19:queue.c       ****     return queue; 
  20:queue.c       **** } 
  63              		.loc 1 20 0
  64 0020 2046     		mov	r0, r4
  65 0022 38BD     		pop	{r3, r4, r5, pc}
  66              		.cfi_endproc
  67              	.LFE64:
  68              		.size	createQueue, .-createQueue
  69              		.section	.text.isFull,"ax",%progbits
  70              		.align	2
  71              		.global	isFull
  72              		.thumb
  73              		.thumb_func
  74              		.type	isFull, %function
  75              	isFull:
  76              	.LFB65:
  21:queue.c       ****   
  22:queue.c       **** // Queue is full when size becomes equal to the capacity  
  23:queue.c       **** int isFull(struct Queue* queue) 
  24:queue.c       **** {  return (queue->size == queue->capacity);  } 
  77              		.loc 1 24 0
  78              		.cfi_startproc
  79              		@ args = 0, pretend = 0, frame = 0
  80              		@ frame_needed = 0, uses_anonymous_args = 0
  81              		@ link register save eliminated.
  82              	.LVL6:
  83              		.loc 1 24 0
  84 0000 8268     		ldr	r2, [r0, #8]
  85 0002 C068     		ldr	r0, [r0, #12]
  86              	.LVL7:
  87 0004 8242     		cmp	r2, r0
  88 0006 14BF     		ite	ne
  89 0008 0020     		movne	r0, #0
  90 000a 0120     		moveq	r0, #1
ARM GAS  C:\Users\dshen\AppData\Local\Temp\cc4y2F8a.s 			page 3


  91 000c 7047     		bx	lr
  92              		.cfi_endproc
  93              	.LFE65:
  94              		.size	isFull, .-isFull
  95 000e 00BF     		.section	.text.isEmpty,"ax",%progbits
  96              		.align	2
  97              		.global	isEmpty
  98              		.thumb
  99              		.thumb_func
 100              		.type	isEmpty, %function
 101              	isEmpty:
 102              	.LFB66:
  25:queue.c       ****   
  26:queue.c       **** // Queue is empty when size is 0 
  27:queue.c       **** int isEmpty(struct Queue* queue) 
  28:queue.c       **** {  return (queue->size == 0); } 
 103              		.loc 1 28 0
 104              		.cfi_startproc
 105              		@ args = 0, pretend = 0, frame = 0
 106              		@ frame_needed = 0, uses_anonymous_args = 0
 107              		@ link register save eliminated.
 108              	.LVL8:
 109              		.loc 1 28 0
 110 0000 8068     		ldr	r0, [r0, #8]
 111              	.LVL9:
 112 0002 B0FA80F0 		clz	r0, r0
 113 0006 4009     		lsrs	r0, r0, #5
 114 0008 7047     		bx	lr
 115              		.cfi_endproc
 116              	.LFE66:
 117              		.size	isEmpty, .-isEmpty
 118 000a 00BF     		.section	.text.enqueue,"ax",%progbits
 119              		.align	2
 120              		.global	enqueue
 121              		.thumb
 122              		.thumb_func
 123              		.type	enqueue, %function
 124              	enqueue:
 125              	.LFB67:
  29:queue.c       ****   
  30:queue.c       **** // Function to add an item to the queue.   
  31:queue.c       **** // It changes rear and size 
  32:queue.c       **** void enqueue(struct Queue* queue, int item) 
  33:queue.c       **** { 
 126              		.loc 1 33 0
 127              		.cfi_startproc
 128              		@ args = 0, pretend = 0, frame = 0
 129              		@ frame_needed = 0, uses_anonymous_args = 0
 130              	.LVL10:
 131 0000 38B5     		push	{r3, r4, r5, lr}
 132              		.cfi_def_cfa_offset 16
 133              		.cfi_offset 3, -16
 134              		.cfi_offset 4, -12
 135              		.cfi_offset 5, -8
 136              		.cfi_offset 14, -4
 137 0002 0446     		mov	r4, r0
 138 0004 0D46     		mov	r5, r1
ARM GAS  C:\Users\dshen\AppData\Local\Temp\cc4y2F8a.s 			page 4


  34:queue.c       ****     if (isFull(queue)) 
 139              		.loc 1 34 0
 140 0006 FFF7FEFF 		bl	isFull
 141              	.LVL11:
 142 000a 68B9     		cbnz	r0, .L5
  35:queue.c       ****         return; 
  36:queue.c       ****     queue->rear = (queue->rear + 1)%queue->capacity; 
 143              		.loc 1 36 0
 144 000c 6368     		ldr	r3, [r4, #4]
 145 000e 0133     		adds	r3, r3, #1
 146 0010 E168     		ldr	r1, [r4, #12]
 147 0012 93FBF1F2 		sdiv	r2, r3, r1
 148 0016 01FB1233 		mls	r3, r1, r2, r3
 149 001a 6360     		str	r3, [r4, #4]
  37:queue.c       ****     queue->array[queue->rear] = item; 
 150              		.loc 1 37 0
 151 001c 2269     		ldr	r2, [r4, #16]
 152 001e 42F82350 		str	r5, [r2, r3, lsl #2]
  38:queue.c       ****     queue->size = queue->size + 1;
 153              		.loc 1 38 0
 154 0022 A368     		ldr	r3, [r4, #8]
 155 0024 0133     		adds	r3, r3, #1
 156 0026 A360     		str	r3, [r4, #8]
 157              	.L5:
 158 0028 38BD     		pop	{r3, r4, r5, pc}
 159              		.cfi_endproc
 160              	.LFE67:
 161              		.size	enqueue, .-enqueue
 162 002a 00BF     		.section	.text.dequeue,"ax",%progbits
 163              		.align	2
 164              		.global	dequeue
 165              		.thumb
 166              		.thumb_func
 167              		.type	dequeue, %function
 168              	dequeue:
 169              	.LFB68:
  39:queue.c       **** } 
  40:queue.c       ****   
  41:queue.c       **** // Function to remove an item from queue.  
  42:queue.c       **** // It changes front and size 
  43:queue.c       **** int dequeue(struct Queue* queue) 
  44:queue.c       **** { 
 170              		.loc 1 44 0
 171              		.cfi_startproc
 172              		@ args = 0, pretend = 0, frame = 0
 173              		@ frame_needed = 0, uses_anonymous_args = 0
 174              	.LVL12:
 175 0000 10B5     		push	{r4, lr}
 176              		.cfi_def_cfa_offset 8
 177              		.cfi_offset 4, -8
 178              		.cfi_offset 14, -4
 179 0002 0446     		mov	r4, r0
  45:queue.c       ****     if (isEmpty(queue)) 
 180              		.loc 1 45 0
 181 0004 FFF7FEFF 		bl	isEmpty
 182              	.LVL13:
 183 0008 70B9     		cbnz	r0, .L10
ARM GAS  C:\Users\dshen\AppData\Local\Temp\cc4y2F8a.s 			page 5


  46:queue.c       ****         return INT_MIN; 
  47:queue.c       ****     int item = queue->array[queue->front]; 
 184              		.loc 1 47 0
 185 000a 2269     		ldr	r2, [r4, #16]
 186 000c 2368     		ldr	r3, [r4]
 187 000e 52F82300 		ldr	r0, [r2, r3, lsl #2]
 188              	.LVL14:
  48:queue.c       ****     queue->front = (queue->front + 1)%queue->capacity; 
 189              		.loc 1 48 0
 190 0012 0133     		adds	r3, r3, #1
 191 0014 E168     		ldr	r1, [r4, #12]
 192 0016 93FBF1F2 		sdiv	r2, r3, r1
 193 001a 01FB1233 		mls	r3, r1, r2, r3
 194 001e 2360     		str	r3, [r4]
  49:queue.c       ****     queue->size = queue->size - 1; 
 195              		.loc 1 49 0
 196 0020 A368     		ldr	r3, [r4, #8]
 197 0022 013B     		subs	r3, r3, #1
 198 0024 A360     		str	r3, [r4, #8]
  50:queue.c       ****     return item; 
 199              		.loc 1 50 0
 200 0026 10BD     		pop	{r4, pc}
 201              	.LVL15:
 202              	.L10:
  46:queue.c       ****     int item = queue->array[queue->front]; 
 203              		.loc 1 46 0
 204 0028 4FF00040 		mov	r0, #-2147483648
  51:queue.c       **** }
 205              		.loc 1 51 0
 206 002c 10BD     		pop	{r4, pc}
 207              		.cfi_endproc
 208              	.LFE68:
 209              		.size	dequeue, .-dequeue
 210 002e 00BF     		.section	.text.front,"ax",%progbits
 211              		.align	2
 212              		.global	front
 213              		.thumb
 214              		.thumb_func
 215              		.type	front, %function
 216              	front:
 217              	.LFB69:
  52:queue.c       ****   
  53:queue.c       **** // Function to get front of queue 
  54:queue.c       **** int front(struct Queue* queue) 
  55:queue.c       **** { 
 218              		.loc 1 55 0
 219              		.cfi_startproc
 220              		@ args = 0, pretend = 0, frame = 0
 221              		@ frame_needed = 0, uses_anonymous_args = 0
 222              	.LVL16:
 223 0000 10B5     		push	{r4, lr}
 224              		.cfi_def_cfa_offset 8
 225              		.cfi_offset 4, -8
 226              		.cfi_offset 14, -4
 227 0002 0446     		mov	r4, r0
  56:queue.c       ****     if (isEmpty(queue)) 
 228              		.loc 1 56 0
ARM GAS  C:\Users\dshen\AppData\Local\Temp\cc4y2F8a.s 			page 6


 229 0004 FFF7FEFF 		bl	isEmpty
 230              	.LVL17:
 231 0008 20B9     		cbnz	r0, .L14
  57:queue.c       ****         return INT_MIN; 
  58:queue.c       ****     return queue->array[queue->front]; 
 232              		.loc 1 58 0
 233 000a 2369     		ldr	r3, [r4, #16]
 234 000c 2268     		ldr	r2, [r4]
 235 000e 53F82200 		ldr	r0, [r3, r2, lsl #2]
 236 0012 10BD     		pop	{r4, pc}
 237              	.LVL18:
 238              	.L14:
  57:queue.c       ****         return INT_MIN; 
 239              		.loc 1 57 0
 240 0014 4FF00040 		mov	r0, #-2147483648
  59:queue.c       **** } 
 241              		.loc 1 59 0
 242 0018 10BD     		pop	{r4, pc}
 243              		.cfi_endproc
 244              	.LFE69:
 245              		.size	front, .-front
 246 001a 00BF     		.section	.text.rear,"ax",%progbits
 247              		.align	2
 248              		.global	rear
 249              		.thumb
 250              		.thumb_func
 251              		.type	rear, %function
 252              	rear:
 253              	.LFB70:
  60:queue.c       ****   
  61:queue.c       **** // Function to get rear of queue 
  62:queue.c       **** int rear(struct Queue* queue) 
  63:queue.c       **** { 
 254              		.loc 1 63 0
 255              		.cfi_startproc
 256              		@ args = 0, pretend = 0, frame = 0
 257              		@ frame_needed = 0, uses_anonymous_args = 0
 258              	.LVL19:
 259 0000 10B5     		push	{r4, lr}
 260              		.cfi_def_cfa_offset 8
 261              		.cfi_offset 4, -8
 262              		.cfi_offset 14, -4
 263 0002 0446     		mov	r4, r0
  64:queue.c       ****     if (isEmpty(queue)) 
 264              		.loc 1 64 0
 265 0004 FFF7FEFF 		bl	isEmpty
 266              	.LVL20:
 267 0008 20B9     		cbnz	r0, .L18
  65:queue.c       ****         return INT_MIN; 
  66:queue.c       ****     return queue->array[queue->rear]; 
 268              		.loc 1 66 0
 269 000a 2369     		ldr	r3, [r4, #16]
 270 000c 6268     		ldr	r2, [r4, #4]
 271 000e 53F82200 		ldr	r0, [r3, r2, lsl #2]
 272 0012 10BD     		pop	{r4, pc}
 273              	.LVL21:
 274              	.L18:
ARM GAS  C:\Users\dshen\AppData\Local\Temp\cc4y2F8a.s 			page 7


  65:queue.c       ****         return INT_MIN; 
 275              		.loc 1 65 0
 276 0014 4FF00040 		mov	r0, #-2147483648
  67:queue.c       **** } ...
 277              		.loc 1 67 0
 278 0018 10BD     		pop	{r4, pc}
 279              		.cfi_endproc
 280              	.LFE70:
 281              		.size	rear, .-rear
 282 001a 00BF     		.text
 283              	.Letext0:
 284              		.file 2 "c:\\program files (x86)\\cypress\\psoc creator\\4.3\\psoc creator\\import\\gnu\\arm\\5.4.
 285              		.file 3 "c:\\program files (x86)\\cypress\\psoc creator\\4.3\\psoc creator\\import\\gnu\\arm\\5.4.
 286              		.file 4 "queue.h"
 287              		.file 5 "Generated_Source\\PSoC5/core_cm3.h"
 288              		.file 6 "c:\\program files (x86)\\cypress\\psoc creator\\4.3\\psoc creator\\import\\gnu\\arm\\5.4.